(lp0
(dp1
S'limited'
p2
F0.00010636034886194426
sS'four'
p3
F0.00021272069772388852
sS'sleep'
p4
F0.0003190810465858328
sS'ceases'
p5
F0.00021272069772388852
sS'paris'
p6
F0.00021272069772388852
sS'contained'
p7
F0.00021272069772388852
sS'worth'
p8
F0.0008508827908955541
sS'shaving'
p9
F0.00042544139544777704
sS'connects'
p10
F0.00010636034886194426
sS'every'
p11
F0.0035098915124441607
sS'solution'
p12
F0.00010636034886194426
sS'enjoy'
p13
F0.0010636034886194426
sS'tired'
p14
F0.0003190810465858328
sS'phones'
p15
F0.0003190810465858328
sS'lavender'
p16
F0.00021272069772388852
sS'nail'
p17
F0.0013826845352052754
sS'second'
p18
F0.0005318017443097213
sS'louder'
p19
F0.00021272069772388852
sS'specs'
p20
F0.0003190810465858328
sS'even'
p21
F0.0039353329078919376
sS'errors'
p22
F0.00010636034886194426
sS'fingers'
p23
F0.0006381620931716656
sS'poison'
p24
F0.0003190810465858328
sS'blur'
p25
F0.00010636034886194426
sS'new'
p26
F0.002339927674962774
sS'ever'
p27
F0.007126143373750266
sS'told'
p28
F0.0006381620931716656
sS'never'
p29
F0.0019144862795149968
sS'stared'
p30
F0.00021272069772388852
sS'reported'
p31
F0.00010636034886194426
sS'china'
p32
F0.00010636034886194426
sS'active'
p33
F0.00021272069772388852
sS'sandisk'
p34
F0.00021272069772388852
sS'dry'
p35
F0.0039353329078919376
sS'kids'
p36
F0.0005318017443097213
sS'daughter'
p37
F0.00010636034886194426
sS'items'
p38
F0.00021272069772388852
sS'study'
p39
F0.0003190810465858328
sS'changed'
p40
F0.0003190810465858328
sS'suitable'
p41
F0.00021272069772388852
sS'changes'
p42
F0.00010636034886194426
sS'fantastic'
p43
F0.0006381620931716656
sS'fragrances'
p44
F0.0003190810465858328
sS'visibly'
p45
F0.0003190810465858328
sS'highly'
p46
F0.0018081259306530525
sS'visible'
p47
F0.0003190810465858328
sS'unit'
p48
F0.00021272069772388852
sS'would'
p49
F0.0037226122101680493
sS'gloss'
p50
F0.00021272069772388852
sS'arms'
p51
F0.0005318017443097213
sS'music'
p52
F0.00042544139544777704
sS'recommend'
p53
F0.0048925760476494365
sS'type'
p54
F0.0006381620931716656
sS'tell'
p55
F0.0013826845352052754
sS'paperwork'
p56
F0.00010636034886194426
sS'holy'
p57
F0.00021272069772388852
sS'hurt'
p58
F0.00021272069772388852
sS'phone'
p59
F0.0013826845352052754
sS'warm'
p60
F0.0006381620931716656
sS'adult'
p61
F0.0003190810465858328
sS'excellent'
p62
F0.0010636034886194426
sS'hold'
p63
F0.0007445224420336099
sS'must'
p64
F0.00042544139544777704
sS'shoot'
p65
F0.00021272069772388852
sS'word'
p66
F0.0003190810465858328
sS'room'
p67
F0.0005318017443097213
sS'work'
p68
F0.005637098489683046
sS'movies'
p69
F0.00021272069772388852
sS'recipes'
p70
F0.0003190810465858328
sS'cerave'
p71
F0.0003190810465858328
sS'give'
p72
F0.0018081259306530525
sS'eczema'
p73
F0.0005318017443097213
sS'reviewing'
p74
F0.0003190810465858328
sS'want'
p75
F0.002339927674962774
sS'curlers'
p76
F0.00021272069772388852
sS'keep'
p77
F0.0018081259306530525
sS'worse'
p78
F0.00010636034886194426
sS'end'
p79
F0.007551584769198043
sS'turn'
p80
F0.0009572431397574984
sS'provide'
p81
F0.001169963837481387
sS'travel'
p82
F0.00021272069772388852
sS'song'
p83
F0.0003190810465858328
sS'nuts'
p84
F0.0003190810465858328
sS'feature'
p85
F0.0006381620931716656
sS'machine'
p86
F0.00021272069772388852
sS'amazing'
p87
F0.001595405232929164
sS'answer'
p88
F0.00042544139544777704
sS'faulty'
p89
F0.00010636034886194426
sS'beach'
p90
F0.0003190810465858328
sS'lan'
p91
F0.0007445224420336099
sS'description'
p92
F0.00010636034886194426
sS'beauty'
p93
F0.0006381620931716656
sS'replacing'
p94
F0.00021272069772388852
sS'earlier'
p95
F0.00010636034886194426
sS'wrong'
p96
F0.0003190810465858328
sS'arch'
p97
F0.0005318017443097213
sS'types'
p98
F0.0003190810465858328
sS'purchase'
p99
F0.0019144862795149968
sS'effective'
p100
F0.00042544139544777704
sS'keeps'
p101
F0.00042544139544777704
sS'worst'
p102
F0.00010636034886194426
sS'order'
p103
F0.0010636034886194426
sS'feedback'
p104
F0.0003190810465858328
sS'office'
p105
F0.0003190810465858328
sS'satisfied'
p106
F0.0003190810465858328
sS'keyboard'
p107
F0.0003190810465858328
sS'fit'
p108
F0.0019144862795149968
sS'personal'
p109
F0.00042544139544777704
sS'fix'
p110
F0.00010636034886194426
sS'expectations'
p111
F0.00042544139544777704
sS'writing'
p112
F0.00021272069772388852
sS'better'
p113
F0.0018081259306530525
sS'weeks'
p114
F0.0012763241863433313
sS'easier'
p115
F0.0006381620931716656
sS'eventually'
p116
F0.00021272069772388852
sS'copying'
p117
F0.00010636034886194426
sS'safe'
p118
F0.0005318017443097213
sS'break'
p119
F0.0007445224420336099
sS'echo'
p120
F0.00010636034886194426
sS'silver'
p121
F0.0003190810465858328
sS'defected'
p122
F0.00010636034886194426
sS'went'
p123
F0.0006381620931716656
sS'side'
p124
F0.0009572431397574984
sS'mean'
p125
F0.0006381620931716656
sS'series'
p126
F0.00021272069772388852
sS'skins'
p127
F0.0003190810465858328
sS'extract'
p128
F0.00042544139544777704
sS'gon'
p129
F0.0006381620931716656
sS'network'
p130
F0.00010636034886194426
sS'scent'
p131
F0.0006381620931716656
sS'washed'
p132
F0.00021272069772388852
sS'reader'
p133
F0.0003190810465858328
sS'got'
p134
F0.0034035311635822164
sS'foundation'
p135
F0.0003190810465858328
sS'given'
p136
F0.0005318017443097213
sS'free'
p137
F0.0010636034886194426
sS'wanted'
p138
F0.0007445224420336099
sS'greasy'
p139
F0.0009572431397574984
sS'days'
p140
F0.0019144862795149968
sS'creates'
p141
F0.0003190810465858328
sS'flawless'
p142
F0.00021272069772388852
sS'shipped'
p143
F0.00042544139544777704
sS'uses'
p144
F0.0010636034886194426
sS'loud'
p145
F0.0003190810465858328
sS'speeds'
p146
F0.00021272069772388852
sS'user'
p147
F0.00042544139544777704
sS'already'
p148
F0.001169963837481387
sS'features'
p149
F0.00042544139544777704
sS'grade'
p150
F0.0005318017443097213
sS'hearing'
p151
F0.00021272069772388852
sS'wash'
p152
F0.0005318017443097213
sS'another'
p153
F0.0009572431397574984
sS'calorie'
p154
F0.0003190810465858328
sS'service'
p155
F0.0003190810465858328
sS'top'
p156
F0.0021272069772388853
sS'needed'
p157
F0.0005318017443097213
sS'legs'
p158
F0.00042544139544777704
sS'toe'
p159
F0.0003190810465858328
sS'tool'
p160
F0.0003190810465858328
sS'brushes'
p161
F0.0005318017443097213
sS'took'
p162
F0.0007445224420336099
sS'somewhat'
p163
F0.00021272069772388852
sS'distance'
p164
F0.00021272069772388852
sS'tree'
p165
F0.00042544139544777704
sS'shower'
p166
F0.0007445224420336099
sS'friend'
p167
F0.0018081259306530525
sS'iron'
p168
F0.0005318017443097213
sS'feeling'
p169
F0.0022335673261008296
sS'mini'
p170
F0.0005318017443097213
sS'runner'
p171
F0.00021272069772388852
sS'mind'
p172
F0.0007445224420336099
sS'mine'
p173
F0.0008508827908955541
sS'raw'
p174
F0.0012763241863433313
sS'seed'
p175
F0.00021272069772388852
sS'seen'
p176
F0.00042544139544777704
sS'seem'
p177
F0.0019144862795149968
sS'mins'
p178
F0.00042544139544777704
sS'tells'
p179
F0.00021272069772388852
sS'dozen'
p180
F0.00021272069772388852
sS'strength'
p181
F0.00010636034886194426
sS'courier'
p182
F0.00010636034886194426
sS'convenient'
p183
F0.00042544139544777704
sS'firmware'
p184
F0.00010636034886194426
sS'sound'
p185
F0.0003190810465858328
sS'recommended'
p186
F0.0008508827908955541
sS'causing'
p187
F0.0003190810465858328
sS'absorbed'
p188
F0.0007445224420336099
sS'defiantly'
p189
F0.0003190810465858328
sS'though'
p190
F0.0017017655817911082
sS'regular'
p191
F0.0005318017443097213
sS'plenty'
p192
F0.0003190810465858328
sS'glow'
p193
F0.0005318017443097213
sS'm'
p194
F0.02542012337800468
sS'definitely'
p195
F0.002339927674962774
sS'came'
p196
F0.0014890448840672197
sS'saying'
p197
F0.0003190810465858328
sS'colors'
p198
F0.0003190810465858328
sS'radio'
p199
F0.00010636034886194426
sS'busy'
p200
F0.00021272069772388852
sS'clicked'
p201
F0.00010636034886194426
sS'acne'
p202
F0.0006381620931716656
sS'hrs'
p203
F0.00010636034886194426
sS'sugar'
p204
F0.0003190810465858328
sS'rich'
p205
F0.0003190810465858328
sS'folks'
p206
F0.0003190810465858328
sS'wearing'
p207
F0.0007445224420336099
sS'lightening'
p208
F0.00021272069772388852
sS'watch'
p209
F0.0003190810465858328
sS'fluid'
p210
F0.00021272069772388852
sS'amazon'
p211
F0.00042544139544777704
sS'despite'
p212
F0.00010636034886194426
sS'nasty'
p213
F0.0003190810465858328
sS'dr'
p214
F0.006487981280578601
sS'runs'
p215
F0.00042544139544777704
sS'bar'
p216
F0.0008508827908955541
sS'twice'
p217
F0.0006381620931716656
sS'bad'
p218
F0.0008508827908955541
sS'automatic'
p219
F0.0006381620931716656
sS'respond'
p220
F0.00010636034886194426
sS'nut'
p221
F0.0013826845352052754
sS'decided'
p222
F0.0006381620931716656
sS'result'
p223
F0.001169963837481387
sS'miserable'
p224
F0.00010636034886194426
sS'best'
p225
F0.002765369070410551
sS'said'
p226
F0.0009572431397574984
sS'lots'
p227
F0.00042544139544777704
sS'away'
p228
F0.0006381620931716656
sS'artificial'
p229
F0.00021272069772388852
sS'mud'
p230
F0.0007445224420336099
sS'unable'
p231
F0.0003190810465858328
sS'finger'
p232
F0.0009572431397574984
sS'packaged'
p233
F0.00042544139544777704
sS'however'
p234
F0.00021272069772388852
sS'lotion'
p235
F0.0014890448840672197
sS'wear'
p236
F0.0012763241863433313
sS'news'
p237
F0.00042544139544777704
sS'picking'
p238
F0.00021272069772388852
sS'roller'
p239
F0.00021272069772388852
sS'improve'
p240
F0.0010636034886194426
sS'suggested'
p241
F0.00021272069772388852
sS'received'
p242
F0.0009572431397574984
sS'country'
p243
F0.00021272069772388852
sS'ill'
p244
F0.0026590087215486065
sS'heating'
p245
F0.0003190810465858328
sS'games'
p246
F0.0003190810465858328
sS'himalayan'
p247
F0.0003190810465858328
sS'asked'
p248
F0.0010636034886194426
sS'suggest'
p249
F0.0003190810465858328
sS'tone'
p250
F0.0007445224420336099
sS'appeared'
p251
F0.00021272069772388852
sS'matte'
p252
F0.00021272069772388852
sS'wider'
p253
F0.0003190810465858328
sS'trust'
p254
F0.00021272069772388852
sS'speak'
p255
F0.00042544139544777704
sS'three'
p256
F0.0008508827908955541
sS'tiny'
p257
F0.00021272069772388852
sS'quickly'
p258
F0.0013826845352052754
sS'much'
p259
F0.003616251861306105
sS'basic'
p260
F0.0007445224420336099
sS'expected'
p261
F0.0005318017443097213
sS'containers'
p262
F0.0003190810465858328
sS'website'
p263
F0.00021272069772388852
sS'life'
p264
F0.0009572431397574984
sS'lift'
p265
F0.00010636034886194426
sS'personally'
p266
F0.00021272069772388852
sS'worked'
p267
F0.0005318017443097213
sS'applied'
p268
F0.0006381620931716656
sS'n'
p269
F0.02871729419272495
sS'near'
p270
F0.00021272069772388852
sS'melted'
p271
F0.0003190810465858328
sS'applies'
p272
F0.00021272069772388852
sS'cracked'
p273
F0.0005318017443097213
sS'balance'
p274
F0.0003190810465858328
sS'leaves'
p275
F0.0009572431397574984
sS'mistake'
p276
F0.00021272069772388852
sS'complaint'
p277
F0.0005318017443097213
sS'cant'
p278
F0.0005318017443097213
sS'tissue'
p279
F0.00021272069772388852
sS'im'
p280
F0.009040629653265263
sS'conditioner'
p281
F0.0003190810465858328
sS'id'
p282
F0.007126143373750266
sS'nike'
p283
F0.0005318017443097213
sS'things'
p284
F0.0005318017443097213
sS'make'
p285
F0.0045734950010636035
sS'babies'
p286
F0.00021272069772388852
sS'several'
p287
F0.0008508827908955541
sS'couple'
p288
F0.001169963837481387
sS'fairly'
p289
F0.0003190810465858328
sS'hang'
p290
F0.0012763241863433313
sS'kit'
p291
F0.0003190810465858328
sS'opportunity'
p292
F0.00021272069772388852
sS'kid'
p293
F0.0007445224420336099
sS'butter'
p294
F0.002871729419272495
sS'kept'
p295
F0.0009572431397574984
sS'contact'
p296
F0.00021272069772388852
sS'mother'
p297
F0.0005318017443097213
sS'claims'
p298
F0.00010636034886194426
sS'massaging'
p299
F0.0003190810465858328
sS'left'
p300
F0.0010636034886194426
sS'laptop'
p301
F0.0010636034886194426
sS'thanks'
p302
F0.0006381620931716656
sS'yet'
p303
F0.00042544139544777704
sS'previous'
p304
F0.0006381620931716656
sS'adding'
p305
F0.00021272069772388852
sS'thankfully'
p306
F0.00021272069772388852
sS'easy'
p307
F0.0037226122101680493
sS'save'
p308
F0.0003190810465858328
sS'gave'
p309
F0.00021272069772388852
sS'possible'
p310
F0.00021272069772388852
sS'possibly'
p311
F0.0003190810465858328
sS'shadow'
p312
F0.00021272069772388852
sS'unique'
p313
F0.00042544139544777704
sS'burnt'
p314
F0.00021272069772388852
sS'gift'
p315
F0.00042544139544777704
sS'zoom'
p316
F0.00021272069772388852
sS'switching'
p317
F0.00021272069772388852
sS'specific'
p318
F0.0003190810465858328
sS'night'
p319
F0.001169963837481387
sS'right'
p320
F0.0024462880238247183
sS'old'
p321
F0.0026590087215486065
sS'deal'
p322
F0.0008508827908955541
sS'people'
p323
F0.001169963837481387
sS'adwi'
p324
F0.0005318017443097213
sS'dead'
p325
F0.0003190810465858328
sS'pain'
p326
F0.0006381620931716656
sS'bottom'
p327
F0.00042544139544777704
sS'everything'
p328
F0.0008508827908955541
sS'icy'
p329
F0.0003190810465858328
sS'asking'
p330
F0.00042544139544777704
sS'core'
p331
F0.00021272069772388852
sS'pls'
p332
F0.00010636034886194426
sS'peel'
p333
F0.0006381620931716656
sS'burn'
p334
F0.0010636034886194426
sS'manufacturing'
p335
F0.00010636034886194426
sS'super'
p336
F0.001595405232929164
sS'properties'
p337
F0.0003190810465858328
sS'plug'
p338
F0.00021272069772388852
sS'months'
p339
F0.0005318017443097213
sS'plus'
p340
F0.0008508827908955541
sS'slightly'
p341
F0.0005318017443097213
sS'automatically'
p342
F0.0003190810465858328
sS'nixon'
p343
F0.00010636034886194426
sS'soo'
p344
F0.0006381620931716656
sS'bath'
p345
F0.0005318017443097213
sS'wrap'
p346
F0.0003190810465858328
sS'lashes'
p347
F0.00010636034886194426
sS'support'
p348
F0.0008508827908955541
sS'constantly'
p349
F0.0003190810465858328
sS'stuck'
p350
F0.00010636034886194426
sS'way'
p351
F0.004041693256753882
sS'call'
p352
F0.001169963837481387
sS'happy'
p353
F0.0024462880238247183
sS'head'
p354
F0.00042544139544777704
sS'heal'
p355
F0.0012763241863433313
sS'remover'
p356
F0.00021272069772388852
sS'wireless'
p357
F0.00021272069772388852
sS'heat'
p358
F0.0008508827908955541
sS'hear'
p359
F0.0006381620931716656
sS'removed'
p360
F0.00010636034886194426
sS'true'
p361
F0.0003190810465858328
sS'reset'
p362
F0.00010636034886194426
sS'pavilion'
p363
F0.0003190810465858328
sS'inside'
p364
F0.0003190810465858328
sS'maximum'
p365
F0.00021272069772388852
sS'devices'
p366
F0.00010636034886194426
sS'pendrive'
p367
F0.00010636034886194426
sS'sometime'
p368
F0.0008508827908955541
sS'awhile'
p369
F0.00021272069772388852
sS'annoying'
p370
F0.00021272069772388852
sS'check'
p371
F0.0003190810465858328
sS'na'
p372
F0.006807062327164433
sS'handmade'
p373
F0.0003190810465858328
sS'setting'
p374
F0.00042544139544777704
sS'holding'
p375
F0.0003190810465858328
sS'test'
p376
F0.0007445224420336099
sS'developers'
p377
F0.00021272069772388852
sS'smell'
p378
F0.0012763241863433313
sS'picture'
p379
F0.0005318017443097213
sS'intend'
p380
F0.00021272069772388852
sS'palms'
p381
F0.0003190810465858328
sS'felt'
p382
F0.001169963837481387
sS'fell'
p383
F0.0003190810465858328
sS'smelling'
p384
F0.00021272069772388852
sS'aware'
p385
F0.00010636034886194426
sS'younger'
p386
F0.0006381620931716656
sS'longer'
p387
F0.0009572431397574984
sS'glass'
p388
F0.0003190810465858328
sS'daily'
p389
F0.00042544139544777704
sS'time'
p390
F0.0045734950010636035
sS'serious'
p391
F0.00021272069772388852
sS'focus'
p392
F0.0003190810465858328
sS'mild'
p393
F0.0003190810465858328
sS'skin'
p394
F0.009891512444160817
sS'certainly'
p395
F0.00010636034886194426
sS'flash'
p396
F0.00021272069772388852
sS'finally'
p397
F0.00042544139544777704
sS'marks'
p398
F0.00042544139544777704
sS'supported'
p399
F0.00010636034886194426
sS'string'
p400
F0.00010636034886194426
sS'keeping'
p401
F0.0005318017443097213
sS'vegan'
p402
F0.00021272069772388852
sS'stays'
p403
F0.00021272069772388852
sS'trouble'
p404
F0.0005318017443097213
sS'cool'
p405
F0.0003190810465858328
sS'leave'
p406
F0.0012763241863433313
sS'item'
p407
F0.0006381620931716656
sS'quick'
p408
F0.0021272069772388853
sS'prevent'
p409
F0.0005318017443097213
sS'dries'
p410
F0.0006381620931716656
sS'says'
p411
F0.00010636034886194426
sS'penetrates'
p412
F0.0003190810465858328
sS'obsolete'
p413
F0.00021272069772388852
sS'sign'
p414
F0.0012763241863433313
sS'cost'
p415
F0.0006381620931716656
sS'dried'
p416
F0.00021272069772388852
sS'port'
p417
F0.001595405232929164
sS'irritated'
p418
F0.0003190810465858328
sS'melt'
p419
F0.0009572431397574984
sS'peels'
p420
F0.00021272069772388852
sS'goes'
p421
F0.0017017655817911082
sS'curled'
p422
F0.00021272069772388852
sS'makeup'
p423
F0.0006381620931716656
sS'moisturized'
p424
F0.00042544139544777704
sS'water'
p425
F0.0008508827908955541
sS'slow'
p426
F0.0003190810465858328
sS'along'
p427
F0.0006381620931716656
sS'moisturizes'
p428
F0.0003190810465858328
sS'appears'
p429
F0.0003190810465858328
sS'change'
p430
F0.001169963837481387
sS'wait'
p431
F0.0012763241863433313
sS'box'
p432
F0.00042544139544777704
sS'sending'
p433
F0.00021272069772388852
sS'noticeable'
p434
F0.0003190810465858328
sS'healthy'
p435
F0.00042544139544777704
sS'usually'
p436
F0.0007445224420336099
sS'massage'
p437
F0.0003190810465858328
sS'love'
p438
F0.010636034886194426
sS'extra'
p439
F0.0006381620931716656
sS'prefer'
p440
F0.00021272069772388852
sS'fake'
p441
F0.00021272069772388852
sS'rarely'
p442
F0.0003190810465858328
sS'market'
p443
F0.0006381620931716656
sS'working'
p444
F0.0007445224420336099
sS'positive'
p445
F0.00021272069772388852
sS'connector'
p446
F0.00010636034886194426
sS'iphone'
p447
F0.0009572431397574984
sS'memory'
p448
F0.00021272069772388852
sS'creams'
p449
F0.0006381620931716656
sS'today'
p450
F0.00021272069772388852
sS'loving'
p451
F0.0003190810465858328
sS'dermatologist'
p452
F0.0003190810465858328
sS'reviews'
p453
F0.00042544139544777704
sS'hope'
p454
F0.0007445224420336099
sS'making'
p455
F0.0013826845352052754
sS'bites'
p456
F0.0003190810465858328
sS'claim'
p457
F0.00042544139544777704
sS'nexus'
p458
F0.00010636034886194426
sS'awesome'
p459
F0.0005318017443097213
sS'sample'
p460
F0.001169963837481387
sS'heard'
p461
F0.00042544139544777704
sS'dropped'
p462
F0.00021272069772388852
sS'serum'
p463
F0.0007445224420336099
sS'amazone'
p464
F0.00010636034886194426
sS'pink'
p465
F0.00042544139544777704
sS'winter'
p466
F0.00042544139544777704
sS'brand'
p467
F0.0008508827908955541
sS'write'
p468
F0.00042544139544777704
sS'till'
p469
F0.0018081259306530525
sS'pure'
p470
F0.0007445224420336099
sS'absolute'
p471
F0.0013826845352052754
sS'product'
p472
F0.008083386513507764
sS'may'
p473
F0.0009572431397574984
sS'spot'
p474
F0.0006381620931716656
sS'mac'
p475
F0.0003190810465858328
sS'birthday'
p476
F0.00021272069772388852
sS'designed'
p477
F0.00021272069772388852
sS'date'
p478
F0.00042544139544777704
sS'data'
p479
F0.00010636034886194426
sS'grow'
p480
F0.0006381620931716656
sS'natural'
p481
F0.0025526483726866626
sS'neck'
p482
F0.00042544139544777704
sS'liquid'
p483
F0.00042544139544777704
sS'whenever'
p484
F0.0003190810465858328
sS'maybe'
p485
F0.0005318017443097213
sS'switch'
p486
F0.0005318017443097213
sS'african'
p487
F0.0005318017443097213
sS'talk'
p488
F0.0005318017443097213
sS'refund'
p489
F0.00010636034886194426
sS'cute'
p490
F0.0007445224420336099
sS'shoes'
p491
F0.0008508827908955541
sS'webpage'
p492
F0.00010636034886194426
sS'mainly'
p493
F0.0003190810465858328
sS'years'
p494
F0.0010636034886194426
sS'decals'
p495
F0.00021272069772388852
sS'ended'
p496
F0.0009572431397574984
sS'still'
p497
F0.0014890448840672197
sS'disconnect'
p498
F0.00010636034886194426
sS'thank'
p499
F0.0013826845352052754
sS'curly'
p500
F0.00010636034886194426
sS'troubles'
p501
F0.00021272069772388852
sS'hot'
p502
F0.0006381620931716656
sS'window'
p503
F0.0006381620931716656
sS'main'
p504
F0.0009572431397574984
sS'non'
p505
F0.0006381620931716656
sS'toxic'
p506
F0.0003190810465858328
sS'half'
p507
F0.00042544139544777704
sS'wont'
p508
F0.00021272069772388852
sS'name'
p509
F0.0003190810465858328
sS'drop'
p510
F0.0010636034886194426
sS'year'
p511
F0.0012763241863433313
sS'happen'
p512
F0.00010636034886194426
sS'worried'
p513
F0.0003190810465858328
sS'shown'
p514
F0.0003190810465858328
sS'space'
p515
F0.00021272069772388852
sS'looking'
p516
F0.0022335673261008296
sS'mess'
p517
F0.0003190810465858328
sS'seriously'
p518
F0.00021272069772388852
sS'internet'
p519
F0.0003190810465858328
sS'formula'
p520
F0.00021272069772388852
sS'receiving'
p521
F0.00021272069772388852
sS'shows'
p522
F0.0003190810465858328
sS'quite'
p523
F0.001169963837481387
sS'card'
p524
F0.0007445224420336099
sS'care'
p525
F0.001595405232929164
sS'honest'
p526
F0.0008508827908955541
sS'thing'
p527
F0.004360774303339715
sS'place'
p528
F0.0008508827908955541
sS'router'
p529
F0.00010636034886194426
sS'star'
p530
F0.0024462880238247183
sS'think'
p531
F0.0017017655817911082
sS'waited'
p532
F0.00042544139544777704
sS'first'
p533
F0.0017017655817911082
sS'initial'
p534
F0.0003190810465858328
sS'saving'
p535
F0.0003190810465858328
sS'one'
p536
F0.008083386513507764
sS'pandeia'
p537
F0.00021272069772388852
sS'long'
p538
F0.0045734950010636035
sS'directly'
p539
F0.0003190810465858328
sS'carry'
p540
F0.0003190810465858328
sS'message'
p541
F0.00010636034886194426
sS'open'
p542
F0.0005318017443097213
sS'size'
p543
F0.0013826845352052754
sS'little'
p544
F0.002765369070410551
sS'checked'
p545
F0.00010636034886194426
sS'earthy'
p546
F0.00042544139544777704
sS'plastic'
p547
F0.0005318017443097213
sS'anyone'
p548
F0.0013826845352052754
sS'moisture'
p549
F0.00042544139544777704
sS'white'
p550
F0.0005318017443097213
sS'sheen'
p551
F0.00042544139544777704
sS'gives'
p552
F0.0008508827908955541
sS'eyes'
p553
F0.0006381620931716656
sS'mostly'
p554
F0.00042544139544777704
sS'preservatives'
p555
F0.0003190810465858328
sS'butt'
p556
F0.0029780897681344395
sS'absorbs'
p557
F0.0007445224420336099
sS'copy'
p558
F0.00010636034886194426
sS'boyfriend'
p559
F0.0003190810465858328
sS'wide'
p560
F0.0006381620931716656
sS'unfortunately'
p561
F0.00021272069772388852
sS'future'
p562
F0.0003190810465858328
sS'cards'
p563
F0.00021272069772388852
sS'coconut'
p564
F0.00042544139544777704
sS'turned'
p565
F0.00021272069772388852
sS'sad'
p566
F0.0003190810465858328
sS'say'
p567
F0.0017017655817911082
sS'saw'
p568
F0.0003190810465858328
sS'sat'
p569
F0.0008508827908955541
sS'terrific'
p570
F0.0003190810465858328
sS'potential'
p571
F0.0003190810465858328
sS'take'
p572
F0.0022335673261008296
sS'online'
p573
F0.00021272069772388852
sS'performance'
p574
F0.0003190810465858328
sS'becoming'
p575
F0.0003190810465858328
sS'sure'
p576
F0.0012763241863433313
sS'multiple'
p577
F0.0003190810465858328
sS'normal'
p578
F0.0005318017443097213
sS'track'
p579
F0.00021272069772388852
sS'price'
p580
F0.0021272069772388853
sS'knew'
p581
F0.00042544139544777704
sS'paid'
p582
F0.00042544139544777704
sS'pair'
p583
F0.0006381620931716656
sS'inserted'
p584
F0.00010636034886194426
sS'pages'
p585
F0.0003190810465858328
sS'moisturizing'
p586
F0.00042544139544777704
sS'especially'
p587
F0.0012763241863433313
sS'later'
p588
F0.00042544139544777704
sS'drive'
p589
F0.0003190810465858328
sS'pores'
p590
F0.0007445224420336099
sS'professional'
p591
F0.00042544139544777704
sS'rating'
p592
F0.00021272069772388852
sS'walking'
p593
F0.00042544139544777704
sS'show'
p594
F0.0017017655817911082
sS'curler'
p595
F0.0007445224420336099
sS'cheap'
p596
F0.0009572431397574984
sS'bright'
p597
F0.0005318017443097213
sS'shoe'
p598
F0.001169963837481387
sS'ground'
p599
F0.00021272069772388852
sS'upgrade'
p600
F0.0003190810465858328
sS'pump'
p601
F0.00042544139544777704
sS'texture'
p602
F0.00042544139544777704
sS'going'
p603
F0.001169963837481387
sS'black'
p604
F0.00042544139544777704
sS'get'
p605
F0.006807062327164433
sS'lighten'
p606
F0.00042544139544777704
sS'horrible'
p607
F0.00010636034886194426
sS'truly'
p608
F0.0007445224420336099
sS'nearly'
p609
F0.00010636034886194426
sS'gen'
p610
F0.0012763241863433313
sS'gel'
p611
F0.0008508827908955541
sS'prime'
p612
F0.00010636034886194426
sS'settings'
p613
F0.00042544139544777704
sS'leather'
p614
F0.0003190810465858328
sS'morning'
p615
F0.0009572431397574984
sS'stupid'
p616
F0.00010636034886194426
sS'husband'
p617
F0.00042544139544777704
sS'station'
p618
F0.0003190810465858328
sS'college'
p619
F0.0003190810465858328
sS'detect'
p620
F0.00010636034886194426
sS'review'
p621
F0.0013826845352052754
sS'outside'
p622
F0.00010636034886194426
sS'reading'
p623
F0.0008508827908955541
sS'across'
p624
F0.0005318017443097213
sS'affordable'
p625
F0.00042544139544777704
sS'notice'
p626
F0.0019144862795149968
sS'screen'
p627
F0.0012763241863433313
sS'come'
p628
F0.0024462880238247183
sS'installation'
p629
F0.00010636034886194426
sS'many'
p630
F0.0021272069772388853
sS'disappointment'
p631
F0.00010636034886194426
sS'comes'
p632
F0.0017017655817911082
sS'among'
p633
F0.00021272069772388852
sS'color'
p634
F0.0010636034886194426
sS'pop'
p635
F0.0005318017443097213
sS'anti'
p636
F0.0003190810465858328
sS'constant'
p637
F0.0003190810465858328
sS'capable'
p638
F0.00010636034886194426
sS'stretch'
p639
F0.0005318017443097213
sS'rhinestones'
p640
F0.0003190810465858328
sS'mark'
p641
F0.0012763241863433313
sS'wants'
p642
F0.0005318017443097213
sS'shopping'
p643
F0.0003190810465858328
sS'offered'
p644
F0.0005318017443097213
sS'laptops'
p645
F0.0003190810465858328
sS'case'
p646
F0.0003190810465858328
sS'disconnected'
p647
F0.00010636034886194426
sS'coco'
p648
F0.0006381620931716656
sS'ive'
p649
F0.006807062327164433
sS'rubbing'
p650
F0.0005318017443097213
sS'canon'
p651
F0.00010636034886194426
sS'middle'
p652
F0.00021272069772388852
sS'someone'
p653
F0.0006381620931716656
sS'heels'
p654
F0.0003190810465858328
sS'ivy'
p655
F0.0003190810465858328
sS'different'
p656
F0.0017017655817911082
sS'develop'
p657
F0.00042544139544777704
sS'harsh'
p658
F0.0006381620931716656
sS'doctor'
p659
F0.0003190810465858328
sS'pay'
p660
F0.00042544139544777704
sS'pan'
p661
F0.0008508827908955541
sS'week'
p662
F0.0022335673261008296
sS'finish'
p663
F0.00021272069772388852
sS'driver'
p664
F0.00021272069772388852
sS'drives'
p665
F0.00021272069772388852
sS'running'
p666
F0.0007445224420336099
sS'delicate'
p667
F0.00021272069772388852
sS'totally'
p668
F0.00010636034886194426
sS'without'
p669
F0.0021272069772388853
sS'relief'
p670
F0.0003190810465858328
sS'bottle'
p671
F0.0006381620931716656
sS'model'
p672
F0.00042544139544777704
sS'modem'
p673
F0.00010636034886194426
sS'charged'
p674
F0.00021272069772388852
sS'summer'
p675
F0.00042544139544777704
sS'money'
p676
F0.0007445224420336099
sS'rest'
p677
F0.0006381620931716656
sS'touch'
p678
F0.0012763241863433313
sS'polish'
p679
F0.0005318017443097213
sS'flavor'
p680
F0.0003190810465858328
sS'speed'
p681
F0.0003190810465858328
sS'blow'
p682
F0.0003190810465858328
sS'thinking'
p683
F0.00021272069772388852
sS'rose'
p684
F0.0014890448840672197
sS'seems'
p685
F0.0013826845352052754
sS'iphones'
p686
F0.0003190810465858328
sS'improvement'
p687
F0.0006381620931716656
sS'treatment'
p688
F0.00042544139544777704
sS'samples'
p689
F0.0003190810465858328
sS'styles'
p690
F0.0003190810465858328
sS'around'
p691
F0.001595405232929164
sS'read'
p692
F0.0024462880238247183
sS'fridge'
p693
F0.0003190810465858328
sS'dark'
p694
F0.0007445224420336099
sS'using'
p695
F0.006275260582854712
sS'disappointed'
p696
F0.00021272069772388852
sS'intel'
p697
F0.0005318017443097213
sS'reduces'
p698
F0.0003190810465858328
sS'lightning'
p699
F0.00010636034886194426
sS'facing'
p700
F0.00010636034886194426
sS'either'
p701
F0.0005318017443097213
sS'always'
p702
F0.002339927674962774
sS'sneaker'
p703
F0.00021272069772388852
sS'exposed'
p704
F0.0003190810465858328
sS'images'
p705
F0.00021272069772388852
sS'provided'
p706
F0.0005318017443097213
sS'unlocked'
p707
F0.00042544139544777704
sS'tube'
p708
F0.00010636034886194426
sS'cleanser'
p709
F0.00042544139544777704
sS'nutty'
p710
F0.0003190810465858328
sS'provides'
p711
F0.0005318017443097213
sS'provider'
p712
F0.00010636034886194426
sS'power'
p713
F0.00021272069772388852
sS'seconds'
p714
F0.00021272069772388852
sS'retains'
p715
F0.0003190810465858328
sS'nails'
p716
F0.0012763241863433313
sS'lens'
p717
F0.00021272069772388852
sS'ok'
p718
F0.006381620931716656
sS'package'
p719
F0.0010636034886194426
sS'favorite'
p720
F0.00042544139544777704
sS'meaning'
p721
F0.00021272069772388852
sS'greatly'
p722
F0.0003190810465858328
sS'act'
p723
F0.003084450116996384
sS'mixed'
p724
F0.0003190810465858328
sS'processor'
p725
F0.0003190810465858328
sS'curling'
p726
F0.0008508827908955541
sS'burning'
p727
F0.0003190810465858328
sS'image'
p728
F0.00021272069772388852
sS'heated'
p729
F0.00021272069772388852
sS'skylake'
p730
F0.0003190810465858328
sS'removing'
p731
F0.00021272069772388852
sS'lol'
p732
F0.0003190810465858328
sS'start'
p733
F0.0021272069772388853
sS'low'
p734
F0.0026590087215486065
sS'stars'
p735
F0.0003190810465858328
sS'allergic'
p736
F0.0003190810465858328
sS'complete'
p737
F0.0007445224420336099
sS'enough'
p738
F0.0009572431397574984
sS'costco'
p739
F0.00010636034886194426
sS'buying'
p740
F0.0007445224420336099
sS'pull'
p741
F0.0005318017443097213
sS'applying'
p742
F0.0003190810465858328
sS'connect'
p743
F0.0005318017443097213
sS'gone'
p744
F0.00021272069772388852
sS'videos'
p745
F0.00021272069772388852
sS'taste'
p746
F0.0005318017443097213
sS'certain'
p747
F0.0003190810465858328
sS'moved'
p748
F0.00021272069772388852
sS'deep'
p749
F0.0003190810465858328
sS'together'
p750
F0.0003190810465858328
sS'file'
p751
F0.00021272069772388852
sS'girlfriend'
p752
F0.00021272069772388852
sS'cream'
p753
F0.0013826845352052754
sS'drivers'
p754
F0.00021272069772388852
sS'storage'
p755
F0.00042544139544777704
sS'tight'
p756
F0.0008508827908955541
sS'poor'
p757
F0.00010636034886194426
sS'refunded'
p758
F0.00010636034886194426
sS'important'
p759
F0.00042544139544777704
sS'coverage'
p760
F0.00010636034886194426
sS'brands'
p761
F0.0003190810465858328
sS'nikon'
p762
F0.00010636034886194426
sS'wife'
p763
F0.0005318017443097213
sS'invest'
p764
F0.0003190810465858328
sS'wifi'
p765
F0.0003190810465858328
sS'mask'
p766
F0.0013826845352052754
sS'u'
p767
F0.02722824930865773
sS'configure'
p768
F0.00010636034886194426
sS'starting'
p769
F0.0006381620931716656
sS'original'
p770
F0.00021272069772388852
sS'consider'
p771
F0.00042544139544777704
sS'chinese'
p772
F0.00021272069772388852
sS'beware'
p773
F0.00010636034886194426
sS'lack'
p774
F0.0006381620931716656
sS'month'
p775
F0.0012763241863433313
sS'messy'
p776
F0.00021272069772388852
sS'follow'
p777
F0.00042544139544777704
sS'disk'
p778
F0.0003190810465858328
sS'tv'
p779
F0.0003190810465858328
sS'tp'
p780
F0.0003190810465858328
sS'removal'
p781
F0.00021272069772388852
sS'enjoying'
p782
F0.0003190810465858328
sS'paying'
p783
F0.0003190810465858328
sS'returned'
p784
F0.00010636034886194426
sS'returning'
p785
F0.00021272069772388852
sS'far'
p786
F0.001169963837481387
sS'puffy'
p787
F0.0003190810465858328
sS'fan'
p788
F0.0013826845352052754
sS'sony'
p789
F0.00010636034886194426
sS'hemp'
p790
F0.00042544139544777704
sS'difference'
p791
F0.0013826845352052754
sS'condition'
p792
F0.0005318017443097213
sS'cable'
p793
F0.00021272069772388852
sS'list'
p794
F0.00042544139544777704
sS'large'
p795
F0.0008508827908955541
sS'adjust'
p796
F0.00042544139544777704
sS'small'
p797
F0.0013826845352052754
sS'ten'
p798
F0.002871729419272495
sS'past'
p799
F0.0006381620931716656
sS'rate'
p800
F0.0012763241863433313
sS'design'
p801
F0.0008508827908955541
sS'pass'
p802
F0.00042544139544777704
sS'sun'
p803
F0.0008508827908955541
sS'version'
p804
F0.0005318017443097213
sS'full'
p805
F0.001169963837481387
sS'loose'
p806
F0.00021272069772388852
sS'moisturizers'
p807
F0.0003190810465858328
sS'hours'
p808
F0.0005318017443097213
sS'excess'
p809
F0.0003190810465858328
sS'directions'
p810
F0.00010636034886194426
sS'strong'
p811
F0.00042544139544777704
sS'colored'
p812
F0.00021272069772388852
sS'allows'
p813
F0.0005318017443097213
sS'experimenting'
p814
F0.00042544139544777704
sS'experience'
p815
F0.0006381620931716656
sS'prior'
p816
F0.0003190810465858328
sS'amount'
p817
F0.0014890448840672197
sS'pick'
p818
F0.0006381620931716656
sS'sealing'
p819
F0.0003190810465858328
sS'narrow'
p820
F0.00010636034886194426
sS'sticking'
p821
F0.00021272069772388852
sS'followed'
p822
F0.00021272069772388852
sS'family'
p823
F0.00042544139544777704
sS'suddenly'
p824
F0.00010636034886194426
sS'put'
p825
F0.0019144862795149968
sS'pulls'
p826
F0.0003190810465858328
sS'pigmented'
p827
F0.00021272069772388852
sS'eye'
p828
F0.0009572431397574984
sS'takes'
p829
F0.001169963837481387
sS'contains'
p830
F0.0005318017443097213
sS'two'
p831
F0.0008508827908955541
sS'fragrance'
p832
F0.0008508827908955541
sS'minor'
p833
F0.0003190810465858328
sS'flat'
p834
F0.0003190810465858328
sS'door'
p835
F0.00042544139544777704
sS'knows'
p836
F0.0003190810465858328
sS'purse'
p837
F0.0003190810465858328
sS'company'
p838
F0.00042544139544777704
sS'tested'
p839
F0.00021272069772388852
sS'basically'
p840
F0.0003190810465858328
sS'broke'
p841
F0.00010636034886194426
sS'particular'
p842
F0.0005318017443097213
sS'known'
p843
F0.0003190810465858328
sS'glad'
p844
F0.0009572431397574984
sS'hardware'
p845
F0.00042544139544777704
sS'none'
p846
F0.0005318017443097213
sS'hour'
p847
F0.0007445224420336099
sS'sucks'
p848
F0.00021272069772388852
sS'remain'
p849
F0.0003190810465858328
sS'learn'
p850
F0.0003190810465858328
sS'beautiful'
p851
F0.0010636034886194426
sS'transcend'
p852
F0.00021272069772388852
sS'compare'
p853
F0.0010636034886194426
sS'stated'
p854
F0.00010636034886194426
sS'accept'
p855
F0.0003190810465858328
sS'numbers'
p856
F0.00021272069772388852
sS'purchased'
p857
F0.001169963837481387
sS'sharp'
p858
F0.00021272069772388852
sS'scar'
p859
F0.0005318017443097213
sS'rejuvenates'
p860
F0.0003190810465858328
sS'huge'
p861
F0.0005318017443097213
sS'needs'
p862
F0.00042544139544777704
sS'rather'
p863
F0.0003190810465858328
sS'breaking'
p864
F0.00042544139544777704
sS'stayed'
p865
F0.0003190810465858328
sS'cleansing'
p866
F0.0003190810465858328
sS'argan'
p867
F0.00010636034886194426
sS'upto'
p868
F0.00010636034886194426
sS'tried'
p869
F0.002339927674962774
sS'advice'
p870
F0.00021272069772388852
sS'connectivity'
p871
F0.00021272069772388852
sS'lighting'
p872
F0.0003190810465858328
sS'coming'
p873
F0.00042544139544777704
sS'appealed'
p874
F0.0003190810465858328
sS'response'
p875
F0.00021272069772388852
sS'short'
p876
F0.0005318017443097213
sS'coat'
p877
F0.0005318017443097213
sS'shade'
p878
F0.00010636034886194426
sS'playing'
p879
F0.0005318017443097213
sS'help'
p880
F0.0024462880238247183
sS'soon'
p881
F0.0003190810465858328
sS'installed'
p882
F0.0003190810465858328
sS'held'
p883
F0.00010636034886194426
sS'paper'
p884
F0.00042544139544777704
sS'hell'
p885
F0.00021272069772388852
sS'style'
p886
F0.0006381620931716656
sS'actually'
p887
F0.0012763241863433313
sS'late'
p888
F0.001169963837481387
sS'detected'
p889
F0.00010636034886194426
sS'might'
p890
F0.00042544139544777704
sS'lookout'
p891
F0.00042544139544777704
sS'good'
p892
F0.0035098915124441607
sS'return'
p893
F0.0003190810465858328
sS'unrefined'
p894
F0.0006381620931716656
sS'frizzy'
p895
F0.00021272069772388852
sS'foot'
p896
F0.00042544139544777704
sS'instructions'
p897
F0.0003190810465858328
sS'easily'
p898
F0.0007445224420336099
sS'fully'
p899
F0.0008508827908955541
sS'micro'
p900
F0.00042544139544777704
sS'stopped'
p901
F0.00021272069772388852
sS'found'
p902
F0.002020846628376941
sS'heavy'
p903
F0.0006381620931716656
sS'everyone'
p904
F0.00042544139544777704
sS'weight'
p905
F0.0008508827908955541
sS'house'
p906
F0.0003190810465858328
sS'hard'
p907
F0.0012763241863433313
sS'reduce'
p908
F0.0006381620931716656
sS'idea'
p909
F0.00021272069772388852
sS'oil'
p910
F0.0034035311635822164
sS'expect'
p911
F0.001169963837481387
sS'thick'
p912
F0.0013826845352052754
sS'really'
p913
F0.006275260582854712
sS'silky'
p914
F0.0005318017443097213
sS'lipstick'
p915
F0.00021272069772388852
sS'solved'
p916
F0.00021272069772388852
sS'since'
p917
F0.0025526483726866626
sS'health'
p918
F0.0007445224420336099
sS'print'
p919
F0.00042544139544777704
sS'issue'
p920
F0.0005318017443097213
sS'pathetic'
p921
F0.00010636034886194426
sS'friday'
p922
F0.0003190810465858328
sS'reason'
p923
F0.0007445224420336099
sS'base'
p924
F0.0006381620931716656
sS'imagine'
p925
F0.0003190810465858328
sS'ask'
p926
F0.003084450116996384
sS'terrible'
p927
F0.00021272069772388852
sS'lotions'
p928
F0.0006381620931716656
sS'w'
p929
F0.023292916400765796
sS'fallen'
p930
F0.00042544139544777704
sS'major'
p931
F0.0003190810465858328
sS'swipe'
p932
F0.0003190810465858328
sS'dont'
p933
F0.00021272069772388852
sS'upper'
p934
F0.00021272069772388852
sS'feel'
p935
F0.007870665815783875
sS'number'
p936
F0.00042544139544777704
sS'feet'
p937
F0.0010636034886194426
sS'done'
p938
F0.00042544139544777704
sS'glitter'
p939
F0.0003190810465858328
sS'soaps'
p940
F0.0003190810465858328
sS'guess'
p941
F0.00042544139544777704
sS'temperature'
p942
F0.00042544139544777704
sS'smoother'
p943
F0.0006381620931716656
sS'comfy'
p944
F0.0003190810465858328
sS'least'
p945
F0.0003190810465858328
sS'wonderful'
p946
F0.0007445224420336099
sS'gpu'
p947
F0.00021272069772388852
sS'store'
p948
F0.0007445224420336099
sS'selling'
p949
F0.0003190810465858328
sS'option'
p950
F0.00010636034886194426
sS'immediate'
p951
F0.0007445224420336099
sS'luckily'
p952
F0.00021272069772388852
sS'part'
p953
F0.0012763241863433313
sS'believe'
p954
F0.0006381620931716656
sS'kind'
p955
F0.0018081259306530525
sS'compliments'
p956
F0.00010636034886194426
sS'gotten'
p957
F0.0006381620931716656
sS'supposed'
p958
F0.0003190810465858328
sS'kindle'
p959
F0.0008508827908955541
sS'wasnt'
p960
F0.00010636034886194426
sS'sell'
p961
F0.0005318017443097213
sS'built'
p962
F0.0003190810465858328
sS'also'
p963
F0.004148053605615826
sS'lip'
p964
F0.0007445224420336099
sS'useless'
p965
F0.00010636034886194426
sS'finding'
p966
F0.00010636034886194426
sS'play'
p967
F0.0009572431397574984
sS'experienced'
p968
F0.00021272069772388852
sS'significant'
p969
F0.0003190810465858328
sS'nothing'
p970
F0.0010636034886194426
sS'extremely'
p971
F0.0008508827908955541
sS'refrigerator'
p972
F0.0003190810465858328
sS'mineral'
p973
F0.0005318017443097213
sS'sturdy'
p974
F0.00042544139544777704
sS'windows'
p975
F0.0006381620931716656
sS'clear'
p976
F0.0007445224420336099
sS'sometimes'
p977
F0.0008508827908955541
sS'cover'
p978
F0.00010636034886194426
sS'optical'
p979
F0.00021272069772388852
sS'clean'
p980
F0.0017017655817911082
sS'asus'
p981
F0.00021272069772388852
sS'usual'
p982
F0.0009572431397574984
sS'gold'
p983
F0.0003190810465858328
sS'moroccan'
p984
F0.00010636034886194426
sS'fine'
p985
F0.0010636034886194426
sS'find'
p986
F0.0024462880238247183
sS'indicator'
p987
F0.00010636034886194426
sS'northern'
p988
F0.00010636034886194426
sS'unhappy'
p989
F0.00010636034886194426
sS'failed'
p990
F0.00021272069772388852
sS'pretty'
p991
F0.0013826845352052754
sS'touchscreen'
p992
F0.0003190810465858328
sS'hit'
p993
F0.0006381620931716656
sS'waterproof'
p994
F0.00010636034886194426
sS'cheaper'
p995
F0.0003190810465858328
sS'feels'
p996
F0.0025526483726866626
sS'batter'
p997
F0.0008508827908955541
sS'valuable'
p998
F0.00021272069772388852
sS'remove'
p999
F0.0003190810465858328
sS'common'
p1000
F0.00021272069772388852
sS'double'
p1001
F0.00010636034886194426
sS'scanning'
p1002
F0.00010636034886194426
sS'set'
p1003
F0.0012763241863433313
sS'see'
p1004
F0.004360774303339715
sS'bare'
p1005
F0.00042544139544777704
sS'close'
p1006
F0.00042544139544777704
sS'knees'
p1007
F0.00021272069772388852
sS'vitamins'
p1008
F0.0003190810465858328
sS'pictures'
p1009
F0.0005318017443097213
sS'please'
p1010
F0.0005318017443097213
sS'fans'
p1011
F0.0003190810465858328
sS'various'
p1012
F0.0003190810465858328
sS'probably'
p1013
F0.00042544139544777704
sS'numerous'
p1014
F0.00042544139544777704
sS'compliment'
p1015
F0.0003190810465858328
sS'available'
p1016
F0.0003190810465858328
sS'recently'
p1017
F0.00042544139544777704
sS'missing'
p1018
F0.00010636034886194426
sS'initially'
p1019
F0.00021272069772388852
sS'sold'
p1020
F0.0003190810465858328
sS'sole'
p1021
F0.0003190810465858328
sS'last'
p1022
F0.002871729419272495
sS'hesitant'
p1023
F0.0003190810465858328
sS'aloe'
p1024
F0.00042544139544777704
sS'barely'
p1025
F0.00021272069772388852
sS'sensitive'
p1026
F0.0006381620931716656
sS'connection'
p1027
F0.0003190810465858328
sS'whole'
p1028
F0.0005318017443097213
sS'upgraded'
p1029
F0.00021272069772388852
sS'liked'
p1030
F0.0005318017443097213
sS'point'
p1031
F0.00042544139544777704
sS'simple'
p1032
F0.0006381620931716656
sS'simply'
p1033
F0.00021272069772388852
sS'throughout'
p1034
F0.00042544139544777704
sS'moisturizer'
p1035
F0.001169963837481387
sS'expensive'
p1036
F0.0010636034886194426
sS'described'
p1037
F0.00042544139544777704
sS'create'
p1038
F0.00042544139544777704
sS'due'
p1039
F0.0003190810465858328
sS'ran'
p1040
F0.0024462880238247183
sS'dropping'
p1041
F0.00010636034886194426
sS'brick'
p1042
F0.0003190810465858328
sS'fire'
p1043
F0.00021272069772388852
sS'else'
p1044
F0.00042544139544777704
sS'understand'
p1045
F0.00010636034886194426
sS'look'
p1046
F0.005105296745373325
sS'talking'
p1047
F0.00021272069772388852
sS'straight'
p1048
F0.0005318017443097213
sS'smart'
p1049
F0.00042544139544777704
sS'error'
p1050
F0.00010636034886194426
sS'fun'
p1051
F0.0005318017443097213
sS'real'
p1052
F0.006913422676026377
sS'costly'
p1053
F0.0003190810465858328
sS'hoping'
p1054
F0.0003190810465858328
sS'rip'
p1055
F0.0005318017443097213
sS'moto'
p1056
F0.00021272069772388852
sS'disappointing'
p1057
F0.00010636034886194426
sS'beautifully'
p1058
F0.0003190810465858328
sS'ready'
p1059
F0.0012763241863433313
sS'rid'
p1060
F0.001169963837481387
sS'widely'
p1061
F0.00021272069772388852
sS'grand'
p1062
F0.00021272069772388852
sS'day'
p1063
F0.004148053605615826
sS'higher'
p1064
F0.00021272069772388852
sS'used'
p1065
F0.005530738140821102
sS'dime'
p1066
F0.00042544139544777704
sS'yesterday'
p1067
F0.0003190810465858328
sS'moment'
p1068
F0.0003190810465858328
sS'arrived'
p1069
F0.0005318017443097213
sS'cleaning'
p1070
F0.00021272069772388852
sS'infused'
p1071
F0.0003190810465858328
sS'recent'
p1072
F0.0006381620931716656
sS'early'
p1073
F0.0005318017443097213
sS'spent'
p1074
F0.00042544139544777704
sS'person'
p1075
F0.0005318017443097213
sS'consistency'
p1076
F0.0003190810465858328
sS'kabuki'
p1077
F0.0006381620931716656
sS'presume'
p1078
F0.00010636034886194426
sS'shape'
p1079
F0.00042544139544777704
sS'world'
p1080
F0.00042544139544777704
sS'useful'
p1081
F0.00042544139544777704
sS'cut'
p1082
F0.0012763241863433313
sS'excited'
p1083
F0.0005318017443097213
sS'surprised'
p1084
F0.0005318017443097213
sS'build'
p1085
F0.00021272069772388852
sS'ridiculously'
p1086
F0.00021272069772388852
sS'customers'
p1087
F0.00021272069772388852
sS'format'
p1088
F0.00010636034886194426
sS'big'
p1089
F0.0010636034886194426
sS'showing'
p1090
F0.00042544139544777704
sS'bit'
p1091
F0.0019144862795149968
sS'helpful'
p1092
F0.0003190810465858328
sS'knock'
p1093
F0.00010636034886194426
sS'd'
p1094
F0.027866411401829397
sS'signal'
p1095
F0.00010636034886194426
sS'collect'
p1096
F0.00021272069772388852
sS'continue'
p1097
F0.0010636034886194426
sS'often'
p1098
F0.0007445224420336099
sS'absolutely'
p1099
F0.0012763241863433313
sS'back'
p1100
F0.0014890448840672197
sS'lips'
p1101
F0.0005318017443097213
sS'added'
p1102
F0.0005318017443097213
sS'sprint'
p1103
F0.00021272069772388852
sS'delivered'
p1104
F0.00021272069772388852
sS'shall'
p1105
F0.00010636034886194426
sS'per'
p1106
F0.006062539885130823
sS'seller'
p1107
F0.00021272069772388852
sS'pen'
p1108
F0.002765369070410551
sS'connecting'
p1109
F0.00021272069772388852
sS'inserting'
p1110
F0.00010636034886194426
sS'run'
p1111
F0.0014890448840672197
sS'rub'
p1112
F0.001595405232929164
sS'clay'
p1113
F0.0005318017443097213
sS'costumer'
p1114
F0.00010636034886194426
sS'lasts'
p1115
F0.0003190810465858328
sS'everyday'
p1116
F0.0006381620931716656
sS'intense'
p1117
F0.00021272069772388852
sS'anything'
p1118
F0.0006381620931716656
sS'wrinkles'
p1119
F0.0006381620931716656
sS'range'
p1120
F0.0003190810465858328
sS'wonders'
p1121
F0.0003190810465858328
sS'shiny'
p1122
F0.00042544139544777704
sS'block'
p1123
F0.0003190810465858328
sS'repair'
p1124
F0.00021272069772388852
sS'within'
p1125
F0.0006381620931716656
sS'appropriate'
p1126
F0.0003190810465858328
sS'rolls'
p1127
F0.00010636034886194426
sS'smells'
p1128
F0.0008508827908955541
sS'impressed'
p1129
F0.0003190810465858328
sS'shea'
p1130
F0.003084450116996384
sS'question'
p1131
F0.0003190810465858328
sS'fast'
p1132
F0.0012763241863433313
sS'forward'
p1133
F0.00042544139544777704
sS'opposed'
p1134
F0.00021272069772388852
sS'files'
p1135
F0.00010636034886194426
sS'properly'
p1136
F0.00021272069772388852
sS'link'
p1137
F0.00010636034886194426
sS'line'
p1138
F0.0014890448840672197
sS'us'
p1139
F0.017868538608806637
sS'ur'
p1140
F0.012763241863433313
sS'mobile'
p1141
F0.00021272069772388852
sS'similar'
p1142
F0.0006381620931716656
sS'called'
p1143
F0.0003190810465858328
sS'ordered'
p1144
F0.0007445224420336099
sS'single'
p1145
F0.00021272069772388852
sS'cure'
p1146
F0.0005318017443097213
sS'curl'
p1147
F0.0013826845352052754
sS'buffer'
p1148
F0.00010636034886194426
sS'hydrates'
p1149
F0.0003190810465858328
sS'scrape'
p1150
F0.0003190810465858328
sS'plugged'
p1151
F0.00010636034886194426
sS'hydrated'
p1152
F0.00021272069772388852
sS'nice'
p1153
F0.003084450116996384
sS'gross'
p1154
F0.0003190810465858328
sS'problems'
p1155
F0.0003190810465858328
sS'replace'
p1156
F0.00010636034886194426
sS'insect'
p1157
F0.0003190810465858328
sS'sides'
p1158
F0.00021272069772388852
sS'ago'
p1159
F0.0006381620931716656
sS'suffers'
p1160
F0.0003190810465858328
sS'e'
p1161
F0.03116358221654967
sS'age'
p1162
F0.002765369070410551
sS'required'
p1163
F0.00010636034886194426
sS'heats'
p1164
F0.00021272069772388852
sS'fresh'
p1165
F0.0006381620931716656
sS'scroll'
p1166
F0.00021272069772388852
sS'melts'
p1167
F0.0005318017443097213
sS'results'
p1168
F0.0009572431397574984
sS'soften'
p1169
F0.0005318017443097213
sS'antennas'
p1170
F0.00010636034886194426
sS'softer'
p1171
F0.0010636034886194426
sS'gb'
p1172
F0.00021272069772388852
sS'go'
p1173
F0.01021059349074665
sS'centers'
p1174
F0.00010636034886194426
sS'issues'
p1175
F0.0003190810465858328
sS'seemed'
p1176
F0.0003190810465858328
sS'send'
p1177
F0.0003190810465858328
sS'helps'
p1178
F0.0005318017443097213
sS'sent'
p1179
F0.00042544139544777704
sS'continues'
p1180
F0.00010636034886194426
sS'telling'
p1181
F0.00042544139544777704
sS'drinking'
p1182
F0.0003190810465858328
sS'continued'
p1183
F0.0003190810465858328
sS'minerals'
p1184
F0.0003190810465858328
sS'entire'
p1185
F0.00042544139544777704
sS'button'
p1186
F0.00021272069772388852
sS'try'
p1187
F0.0024462880238247183
sS'smaller'
p1188
F0.00042544139544777704
sS'sensation'
p1189
F0.00021272069772388852
sS'video'
p1190
F0.0003190810465858328
sS'booth'
p1191
F0.00021272069772388852
sS'download'
p1192
F0.0003190810465858328
sS'acid'
p1193
F0.00042544139544777704
sS'flagship'
p1194
F0.00021272069772388852
sS'giving'
p1195
F0.00021272069772388852
sS'cell'
p1196
F0.0012763241863433313
sS'waiting'
p1197
F0.0003190810465858328
sS'body'
p1198
F0.0012763241863433313
sS'led'
p1199
F0.0014890448840672197
sS'exchange'
p1200
F0.0007445224420336099
sS'commercial'
p1201
F0.0005318017443097213
sS'let'
p1202
F0.0019144862795149968
sS'healing'
p1203
F0.00042544139544777704
sS'others'
p1204
F0.00021272069772388852
sS'great'
p1205
F0.007870665815783875
sS'receive'
p1206
F0.0009572431397574984
sS'larger'
p1207
F0.0005318017443097213
sS'leaving'
p1208
F0.00042544139544777704
sS'products'
p1209
F0.0029780897681344395
sS'makes'
p1210
F0.0024462880238247183
sS'thats'
p1211
F0.00010636034886194426
sS'app'
p1212
F0.006487981280578601
sS'siri'
p1213
F0.00021272069772388852
sS'apply'
p1214
F0.0021272069772388853
sS'resets'
p1215
F0.00010636034886194426
sS'staple'
p1216
F0.0003190810465858328
sS'use'
p1217
F0.011805998723675814
sS'crap'
p1218
F0.0003190810465858328
sS'usb'
p1219
F0.0006381620931716656
sS'next'
p1220
F0.0006381620931716656
sS'camera'
p1221
F0.0009572431397574984
sS'oils'
p1222
F0.0010636034886194426
sS'oily'
p1223
F0.0007445224420336099
sS'sort'
p1224
F0.0003190810465858328
sS'popped'
p1225
F0.00010636034886194426
sS'started'
p1226
F0.0014890448840672197
sS'becomes'
p1227
F0.0003190810465858328
sS'sore'
p1228
F0.0003190810465858328
sS'baby'
p1229
F0.00021272069772388852
sS'women'
p1230
F0.0005318017443097213
sS'customer'
p1231
F0.0005318017443097213
sS'anywhere'
p1232
F0.0003190810465858328
sS'thin'
p1233
F0.006275260582854712
sS'meet'
p1234
F0.00010636034886194426
sS'drops'
p1235
F0.0007445224420336099
sS'didnt'
p1236
F0.00021272069772388852
sS'lock'
p1237
F0.0008508827908955541
sS'tax'
p1238
F0.0003190810465858328
sS'high'
p1239
F0.0032971708147202725
sS'something'
p1240
F0.001169963837481387
sS'hesitate'
p1241
F0.0003190810465858328
sS'defective'
p1242
F0.00010636034886194426
sS'sit'
p1243
F0.0017017655817911082
sS'holds'
p1244
F0.0003190810465858328
sS'instead'
p1245
F0.0003190810465858328
sS'sim'
p1246
F0.0013826845352052754
sS'stock'
p1247
F0.0003190810465858328
sS'stop'
p1248
F0.0006381620931716656
sS'masks'
p1249
F0.0003190810465858328
sS'weighed'
p1250
F0.00010636034886194426
sS'fits'
p1251
F0.0008508827908955541
sS'realized'
p1252
F0.0003190810465858328
sS'light'
p1253
F0.0039353329078919376
sS'lines'
p1254
F0.0005318017443097213
sS'gameing'
p1255
F0.00021272069772388852
sS'scoop'
p1256
F0.0003190810465858328
sS'honestly'
p1257
F0.00010636034886194426
sS'allow'
p1258
F0.0008508827908955541
sS'preparing'
p1259
F0.0003190810465858328
sS'move'
p1260
F0.0005318017443097213
sS'including'
p1261
F0.0003190810465858328
sS'looks'
p1262
F0.0010636034886194426
sS'brittle'
p1263
F0.00021272069772388852
sS'galaxy'
p1264
F0.00021272069772388852
sS'perfect'
p1265
F0.0012763241863433313
sS'superior'
p1266
F0.00010636034886194426
sS'revived'
p1267
F0.0003190810465858328
sS'dispose'
p1268
F0.00010636034886194426
sS'willing'
p1269
F0.0003190810465858328
sS'mention'
p1270
F0.00021272069772388852
sS'hands'
p1271
F0.001595405232929164
sS'front'
p1272
F0.0003190810465858328
sS'handy'
p1273
F0.0003190810465858328
sS'soaks'
p1274
F0.00042544139544777704
sS'related'
p1275
F0.0003190810465858328
sS'books'
p1276
F0.00042544139544777704
sS'exceeded'
p1277
F0.0003190810465858328
sS'rosehip'
p1278
F0.001169963837481387
sS'special'
p1279
F0.0013826845352052754
sS'bag'
p1280
F0.0005318017443097213
sS'peeling'
p1281
F0.0003190810465858328
sS'cause'
p1282
F0.00042544139544777704
sS'red'
p1283
F0.005105296745373325
sS'completely'
p1284
F0.0007445224420336099
sS'log'
p1285
F0.0005318017443097213
sS'organic'
p1286
F0.001595405232929164
sS'could'
p1287
F0.0013826845352052754
sS'times'
p1288
F0.0013826845352052754
sS'produce'
p1289
F0.0003190810465858328
sS'transfer'
p1290
F0.00021272069772388852
sS'biting'
p1291
F0.00021272069772388852
sS'owned'
p1292
F0.0003190810465858328
sS'soothing'
p1293
F0.0003190810465858328
sS'improvements'
p1294
F0.0003190810465858328
sS'weak'
p1295
F0.00010636034886194426
sS'submit'
p1296
F0.00010636034886194426
sS'quality'
p1297
F0.0019144862795149968
sS'sadly'
p1298
F0.00021272069772388852
sS'guys'
p1299
F0.00010636034886194426
sS'durable'
p1300
F0.00021272069772388852
sS'system'
p1301
F0.00042544139544777704
sS'perfectly'
p1302
F0.0006381620931716656
sS'painful'
p1303
F0.0003190810465858328
sS'lot'
p1304
F0.0035098915124441607
sS'slider'
p1305
F0.00010636034886194426
sS'chemicals'
p1306
F0.0006381620931716656
sS'ipad'
p1307
F0.0003190810465858328
sS'loved'
p1308
F0.0008508827908955541
sS'bed'
p1309
F0.0013826845352052754
sS'loves'
p1310
F0.0009572431397574984
sS'comfortable'
p1311
F0.0007445224420336099
sS'gentle'
p1312
F0.0003190810465858328
sS'need'
p1313
F0.0021272069772388853
sS'clearly'
p1314
F0.0003190810465858328
sS'able'
p1315
F0.003190810465858328
sS'purchasing'
p1316
F0.00042544139544777704
sS'mix'
p1317
F0.0007445224420336099
sS'soap'
p1318
F0.00042544139544777704
sS'unless'
p1319
F0.00021272069772388852
sS'connected'
p1320
F0.00021272069772388852
sS'cracking'
p1321
F0.0003190810465858328
sS'device'
p1322
F0.0005318017443097213
sS'class'
p1323
F0.0003190810465858328
sS'quilted'
p1324
F0.00010636034886194426
sS'face'
p1325
F0.0032971708147202725
sS'looked'
p1326
F0.0008508827908955541
sS'mechanical'
p1327
F0.00010636034886194426
sS'fact'
p1328
F0.0005318017443097213
sS'agreed'
p1329
F0.0003190810465858328
sS'indoor'
p1330
F0.00021272069772388852
sS'bring'
p1331
F0.00042544139544777704
sS'seaweed'
p1332
F0.00042544139544777704
sS'rough'
p1333
F0.0010636034886194426
sS'thicker'
p1334
F0.0003190810465858328
sS'trying'
p1335
F0.0009572431397574984
sS'based'
p1336
F0.00021272069772388852
sS'mumbai'
p1337
F0.00010636034886194426
sS'jar'
p1338
F0.0003190810465858328
sS'pickup'
p1339
F0.00010636034886194426
sS'rash'
p1340
F0.00021272069772388852
sS'hd'
p1341
F0.0003190810465858328
sS'achieve'
p1342
F0.00021272069772388852
sS'handle'
p1343
F0.0005318017443097213
sS'means'
p1344
F0.0003190810465858328
sS'familiar'
p1345
F0.0003190810465858328
sS'overall'
p1346
F0.0009572431397574984
sS'lucky'
p1347
F0.00021272069772388852
sS'ones'
p1348
F0.0014890448840672197
sS'areas'
p1349
F0.0003190810465858328
sS'gray'
p1350
F0.00021272069772388852
sS'calling'
p1351
F0.00021272069772388852
sS'stuff'
p1352
F0.0008508827908955541
sS'mascara'
p1353
F0.00010636034886194426
sS'contain'
p1354
F0.001169963837481387
sS'tightening'
p1355
F0.0003190810465858328
sS'grab'
p1356
F0.00042544139544777704
sS'computer'
p1357
F0.0003190810465858328
sS'powder'
p1358
F0.0006381620931716656
sS'packed'
p1359
F0.00010636034886194426
sS'attempting'
p1360
F0.00010636034886194426
sS'tend'
p1361
F0.0006381620931716656
sS'correctly'
p1362
F0.00021272069772388852
sS'routine'
p1363
F0.00021272069772388852
sS'email'
p1364
F0.00010636034886194426
sS'bought'
p1365
F0.001595405232929164
sS'comparable'
p1366
F0.00021272069772388852
sS'ability'
p1367
F0.0003190810465858328
sS'opening'
p1368
F0.00010636034886194426
sS'joy'
p1369
F0.0010636034886194426
sS'figured'
p1370
F0.00021272069772388852
sS'taking'
p1371
F0.0006381620931716656
sS'etc'
p1372
F0.0007445224420336099
sS'admit'
p1373
F0.0003190810465858328
sS'otherwise'
p1374
F0.00021272069772388852
sS'comment'
p1375
F0.0003190810465858328
sS'curls'
p1376
F0.0007445224420336099
sS'packaging'
p1377
F0.0003190810465858328
sS'addition'
p1378
F0.00021272069772388852
sS'decent'
p1379
F0.0005318017443097213
sS'waste'
p1380
F0.00021272069772388852
sS'otg'
p1381
F0.00010636034886194426
sS'graphics'
p1382
F0.0003190810465858328
sS'prescription'
p1383
F0.0003190810465858328
sS'unlike'
p1384
F0.0003190810465858328
sS'value'
p1385
F0.0003190810465858328
sS'ultra'
p1386
F0.00010636034886194426
sS'almost'
p1387
F0.0008508827908955541
sS'helped'
p1388
F0.0008508827908955541
sS'vs'
p1389
F0.0003190810465858328
sS'lightweight'
p1390
F0.0006381620931716656
sS'bucks'
p1391
F0.00021272069772388852
sS'sits'
p1392
F0.00010636034886194426
sS'perhaps'
p1393
F0.00021272069772388852
sS'parts'
p1394
F0.00021272069772388852
sS'android'
p1395
F0.00010636034886194426
sS'gets'
p1396
F0.0008508827908955541
sS'difficult'
p1397
F0.0003190810465858328
sS'elbows'
p1398
F0.00042544139544777704
sS'absorb'
p1399
F0.001595405232929164
sS'drink'
p1400
F0.0003190810465858328
sS'upon'
p1401
F0.00021272069772388852
sS'sunburn'
p1402
F0.00042544139544777704
sS'tighter'
p1403
F0.0003190810465858328
sS'center'
p1404
F0.00010636034886194426
sS'colour'
p1405
F0.0003190810465858328
sS'well'
p1406
F0.002339927674962774
sS'thought'
p1407
F0.0009572431397574984
sS'audio'
p1408
F0.0003190810465858328
sS'latest'
p1409
F0.00021272069772388852
sS'less'
p1410
F0.0013826845352052754
sS'accurate'
p1411
F0.00021272069772388852
sS'skincare'
p1412
F0.0003190810465858328
sS'advertised'
p1413
F0.00010636034886194426
sS'web'
p1414
F0.0003190810465858328
sS'generous'
p1415
F0.0003190810465858328
sS'supply'
p1416
F0.00021272069772388852
sS'realize'
p1417
F0.00042544139544777704
sS'battery'
p1418
F0.0007445224420336099
sS'add'
p1419
F0.001169963837481387
sS'crack'
p1420
F0.0007445224420336099
sS'usage'
p1421
F0.00021272069772388852
sS'match'
p1422
F0.0003190810465858328
sS'checking'
p1423
F0.00021272069772388852
sS'dryer'
p1424
F0.0003190810465858328
sS'five'
p1425
F0.0003190810465858328
sS'know'
p1426
F0.001169963837481387
sS'facial'
p1427
F0.0006381620931716656
sS'imei'
p1428
F0.00010636034886194426
sS'immediately'
p1429
F0.0005318017443097213
sS'insert'
p1430
F0.00010636034886194426
sS'like'
p1431
F0.006594341629440545
sS'lost'
p1432
F0.00010636034886194426
sS'vibrant'
p1433
F0.0003190810465858328
sS'sized'
p1434
F0.00042544139544777704
sS'become'
p1435
F0.0005318017443097213
sS'works'
p1436
F0.0032971708147202725
sS'soft'
p1437
F0.0039353329078919376
sS'replacement'
p1438
F0.00010636034886194426
sS'glare'
p1439
F0.00042544139544777704
sS'smoothly'
p1440
F0.0003190810465858328
sS'hair'
p1441
F0.0021272069772388853
sS'shes'
p1442
F0.0006381620931716656
sS'home'
p1443
F0.0008508827908955541
sS'literally'
p1444
F0.0003190810465858328
sS'avoid'
p1445
F0.00021272069772388852
sS'noise'
p1446
F0.00021272069772388852
sS'slight'
p1447
F0.0008508827908955541
sS'although'
p1448
F0.0003190810465858328
sS'sister'
p1449
F0.0003190810465858328
sS'actual'
p1450
F0.0014890448840672197
sS'getting'
p1451
F0.0013826845352052754
sS'shipping'
p1452
F0.0003190810465858328
sS'compatible'
p1453
F0.00010636034886194426
sS'carrier'
p1454
F0.00021272069772388852
sS'software'
p1455
F0.00042544139544777704
sS'warranty'
p1456
F0.00021272069772388852
sS'previously'
p1457
F0.00010636034886194426
sS'cocoa'
p1458
F0.00021272069772388852
sS'included'
p1459
F0.0003190810465858328
sS'doesnt'
p1460
F0.0003190810465858328
sS'brush'
p1461
F0.0010636034886194426
sS'pc'
p1462
F0.00021272069772388852
sS'veil'
p1463
F0.00021272069772388852
sS'apps'
p1464
F0.0003190810465858328
sS'spots'
p1465
F0.00042544139544777704
sS'noticed'
p1466
F0.001595405232929164
sS'inner'
p1467
F0.00021272069772388852
sS'biggest'
p1468
F0.00010636034886194426
sS'naturally'
p1469
F0.00021272069772388852
sS'function'
p1470
F0.00010636034886194426
sS'buy'
p1471
F0.002871729419272495
sS'alexa'
p1472
F0.0003190810465858328
sS'hp'
p1473
F0.0008508827908955541
sS'delivery'
p1474
F0.00042544139544777704
sS'eat'
p1475
F0.009891512444160817
sS'versatile'
p1476
F0.0003190810465858328
sS'made'
p1477
F0.002020846628376941
sS'whether'
p1478
F0.00010636034886194426
sS'wish'
p1479
F0.0008508827908955541
sS'smooth'
p1480
F0.0035098915124441607
sS'placed'
p1481
F0.0003190810465858328
sS'hand'
p1482
F0.0026590087215486065
sS'problem'
p1483
F0.0010636034886194426
sS'piece'
p1484
F0.00021272069772388852
sS'minutes'
p1485
F0.0007445224420336099
sS'display'
p1486
F0.00021272069772388852
sS'penny'
p1487
F0.0003190810465858328
sS'compared'
p1488
F0.0008508827908955541
sS'ingredients'
p1489
F0.0006381620931716656
sS'junk'
p1490
F0.00010636034886194426
sS'kinds'
p1491
F0.00042544139544777704
sS'stay'
p1492
F0.0005318017443097213
sS'netgear'
p1493
F0.00010636034886194426
sS'kinda'
p1494
F0.00021272069772388852
sS'friends'
p1495
F0.0010636034886194426
sS'nikes'
p1496
F0.00021272069772388852
sS'samsung'
p1497
F0.00021272069772388852
sS'lasted'
p1498
F0.00042544139544777704
sS'portion'
p1499
F0.00021272069772388852
sS'searched'
p1500
F0.0003190810465858328
sa(dp1501
g2
F0.00045752630776269633
sg3
F0.00030501753850846426
sg4
F0.00015250876925423213
sg5
F0.00030501753850846426
sg6
F0.00030501753850846426
sg7
F0.00030501753850846426
sg8
F0.0013725789232880892
sg9
F0.00015250876925423213
sg10
F0.0006100350770169285
sg11
F0.0019826140003050175
sg12
F0.0007625438462711606
sg13
F0.00015250876925423213
sg14
F0.00015250876925423213
sg15
F0.0006100350770169285
sg16
F0.00015250876925423213
sg17
F0.0006100350770169285
sg18
F0.0015250876925423213
sg19
F0.00030501753850846426
sg20
F0.00045752630776269633
sg21
F0.005490315693152357
sg22
F0.00030501753850846426
sg23
F0.00015250876925423213
sg24
F0.00015250876925423213
sg25
F0.00045752630776269633
sg26
F0.001067561384779625
sg27
F0.004880280616135428
sg28
F0.0007625438462711606
sg29
F0.0019826140003050175
sg30
F0.00030501753850846426
sg31
F0.00045752630776269633
sg32
F0.0006100350770169285
sg33
F0.00045752630776269633
sg34
F0.0013725789232880892
sg35
F0.0015250876925423213
sg36
F0.00030501753850846426
sg37
F0.00045752630776269633
sg38
F0.00030501753850846426
sg39
F0.00015250876925423213
sg40
F0.00030501753850846426
sg41
F0.00045752630776269633
sg42
F0.00045752630776269633
sg43
F0.00030501753850846426
sg44
F0.00015250876925423213
sg45
F0.00015250876925423213
sg46
F0.0007625438462711606
sg47
F0.00030501753850846426
sg48
F0.0006100350770169285
sg49
F0.00503278938538966
sg50
F0.00045752630776269633
sg51
F0.00015250876925423213
sg52
F0.0006100350770169285
sg53
F0.002440140308067714
sg54
F0.00045752630776269633
sg55
F0.0007625438462711606
sg56
F0.00030501753850846426
sg57
F0.00030501753850846426
sg58
F0.00030501753850846426
sg59
F0.0036602104621015707
sg60
F0.00015250876925423213
sg61
F0.00015250876925423213
sg62
F0.00030501753850846426
sg63
F0.00045752630776269633
sg64
F0.0007625438462711606
sg65
F0.0007625438462711606
sg66
F0.00045752630776269633
sg67
F0.001067561384779625
sg68
F0.010980631386304713
sg69
F0.00045752630776269633
sg70
F0.00015250876925423213
sg71
F0.00015250876925423213
sg72
F0.002440140308067714
sg73
F0.00015250876925423213
sg74
F0.00015250876925423213
sg75
F0.002440140308067714
sg76
F0.00015250876925423213
sg77
F0.0015250876925423213
sg78
F0.00045752630776269633
sg79
F0.006557877077931981
sg80
F0.005642824462406588
sg81
F0.0013725789232880892
sg82
F0.00045752630776269633
sg83
F0.00015250876925423213
sg84
F0.00030501753850846426
sg85
F0.00030501753850846426
sg86
F0.00045752630776269633
sg87
F0.00030501753850846426
sg88
F0.0006100350770169285
sg89
F0.0006100350770169285
sg90
F0.00015250876925423213
sg91
F0.001067561384779625
sg92
F0.0007625438462711606
sg93
F0.00030501753850846426
sg94
F0.00030501753850846426
sg95
F0.0007625438462711606
sg96
F0.00045752630776269633
sg97
F0.0006100350770169285
sg98
F0.00015250876925423213
sg99
F0.0033551929235931064
sg100
F0.00030501753850846426
sg101
F0.0007625438462711606
sg102
F0.00213512276955925
sg103
F0.002440140308067714
sg104
F0.00030501753850846426
sg105
F0.00045752630776269633
sg106
F0.0007625438462711606
sg107
F0.00015250876925423213
sg108
F0.0009150526155253927
sg109
F0.00030501753850846426
sg110
F0.0006100350770169285
sg111
F0.0006100350770169285
sg112
F0.00030501753850846426
sg113
F0.002440140308067714
sg114
F0.0007625438462711606
sg115
F0.00015250876925423213
sg116
F0.00030501753850846426
sg117
F0.00045752630776269633
sg118
F0.00015250876925423213
sg119
F0.0006100350770169285
sg120
F0.0006100350770169285
sg121
F0.00015250876925423213
sg122
F0.0007625438462711606
sg123
F0.0009150526155253927
sg124
F0.0028976666158304102
sg125
F0.0009150526155253927
sg126
F0.00030501753850846426
sg127
F0.00015250876925423213
sg128
F0.00015250876925423213
sg129
F0.00045752630776269633
sg130
F0.0006100350770169285
sg131
F0.00030501753850846426
sg132
F0.00045752630776269633
sg133
F0.00015250876925423213
sg134
F0.0032026841543388745
sg135
F0.00030501753850846426
sg136
F0.00030501753850846426
sg137
F0.00045752630776269633
sg138
F0.0006100350770169285
sg139
F0.0009150526155253927
sg140
F0.0019826140003050175
sg141
F0.00015250876925423213
sg142
F0.00030501753850846426
sg143
F0.00015250876925423213
sg144
F0.00045752630776269633
sg145
F0.00030501753850846426
sg146
F0.00045752630776269633
sg147
F0.00015250876925423213
sg148
F0.00045752630776269633
sg149
F0.00015250876925423213
sg150
F0.00030501753850846426
sg151
F0.00030501753850846426
sg152
F0.0007625438462711606
sg153
F0.00213512276955925
sg154
F0.00015250876925423213
sg155
F0.0018301052310507853
sg156
F0.0036602104621015707
sg157
F0.00030501753850846426
sg158
F0.00015250876925423213
sg159
F0.00015250876925423213
sg160
F0.00045752630776269633
sg161
F0.00015250876925423213
sg162
F0.0009150526155253927
sg163
F0.0006100350770169285
sg164
F0.00030501753850846426
sg165
F0.00030501753850846426
sg166
F0.00015250876925423213
sg167
F0.0009150526155253927
sg168
F0.00015250876925423213
sg169
F0.00030501753850846426
sg170
F0.00030501753850846426
sg171
F0.00015250876925423213
sg172
F0.00045752630776269633
sg173
F0.0006100350770169285
sg174
F0.00015250876925423213
sg175
F0.00030501753850846426
sg176
F0.0007625438462711606
sg177
F0.0013725789232880892
sg178
F0.00030501753850846426
sg179
F0.00045752630776269633
sg180
F0.00030501753850846426
sg181
F0.00045752630776269633
sg182
F0.00030501753850846426
sg183
F0.00015250876925423213
sg184
F0.00045752630776269633
sg185
F0.0007625438462711606
sg186
F0.0009150526155253927
sg187
F0.00030501753850846426
sg188
F0.00030501753850846426
sg189
F0.00015250876925423213
sg190
F0.0036602104621015707
sg191
F0.0006100350770169285
sg192
F0.00045752630776269633
sg193
F0.00030501753850846426
sg194
F0.034619490620710694
sg195
F0.0006100350770169285
sg196
F0.0028976666158304102
sg197
F0.00030501753850846426
sg198
F0.00015250876925423213
sg199
F0.00045752630776269633
sg200
F0.00030501753850846426
sg201
F0.00030501753850846426
sg202
F0.00015250876925423213
sg203
F0.00045752630776269633
sg204
F0.00015250876925423213
sg205
F0.00015250876925423213
sg206
F0.00015250876925423213
sg207
F0.00030501753850846426
sg208
F0.00030501753850846426
sg209
F0.00045752630776269633
sg210
F0.00030501753850846426
sg211
F0.0028976666158304102
sg212
F0.00045752630776269633
sg213
F0.00015250876925423213
sg214
F0.007777947231965838
sg215
F0.00045752630776269633
sg216
F0.001067561384779625
sg217
F0.0006100350770169285
sg218
F0.0022876315388134817
sg219
F0.00045752630776269633
sg220
F0.0006100350770169285
sg221
F0.0007625438462711606
sg222
F0.0007625438462711606
sg223
F0.0016775964617965532
sg224
F0.00030501753850846426
sg225
F0.0006100350770169285
sg226
F0.0007625438462711606
sg227
F0.00030501753850846426
sg228
F0.0007625438462711606
sg229
F0.00030501753850846426
sg230
F0.00030501753850846426
sg231
F0.00030501753850846426
sg232
F0.00030501753850846426
sg233
F0.00015250876925423213
sg234
F0.00045752630776269633
sg235
F0.00015250876925423213
sg236
F0.00045752630776269633
sg237
F0.00015250876925423213
sg238
F0.00030501753850846426
sg239
F0.00030501753850846426
sg240
F0.00030501753850846426
sg241
F0.00030501753850846426
sg242
F0.0030501753850846426
sg243
F0.00045752630776269633
sg244
F0.002440140308067714
sg245
F0.00030501753850846426
sg246
F0.00015250876925423213
sg247
F0.00015250876925423213
sg248
F0.0006100350770169285
sg249
F0.001067561384779625
sg250
F0.00030501753850846426
sg251
F0.0006100350770169285
sg252
F0.00045752630776269633
sg253
F0.00015250876925423213
sg254
F0.00045752630776269633
sg255
F0.0006100350770169285
sg256
F0.00030501753850846426
sg257
F0.00030501753850846426
sg258
F0.00030501753850846426
sg259
F0.0018301052310507853
sg260
F0.00045752630776269633
sg261
F0.0009150526155253927
sg262
F0.00015250876925423213
sg263
F0.00045752630776269633
sg264
F0.00030501753850846426
sg265
F0.00030501753850846426
sg266
F0.00030501753850846426
sg267
F0.001220070154033857
sg268
F0.0007625438462711606
sg269
F0.04193991154491383
sg270
F0.0006100350770169285
sg271
F0.00015250876925423213
sg272
F0.00030501753850846426
sg273
F0.00045752630776269633
sg274
F0.00015250876925423213
sg275
F0.00030501753850846426
sg276
F0.0006100350770169285
sg277
F0.00015250876925423213
sg278
F0.0006100350770169285
sg279
F0.00030501753850846426
sg280
F0.009455543693762392
sg281
F0.00030501753850846426
sg282
F0.010828122617050481
sg283
F0.0007625438462711606
sg284
F0.0006100350770169285
sg285
F0.0027451578465761783
sg286
F0.00030501753850846426
sg287
F0.00045752630776269633
sg288
F0.001220070154033857
sg289
F0.00030501753850846426
sg290
F0.0015250876925423213
sg291
F0.00030501753850846426
sg292
F0.00030501753850846426
sg293
F0.00030501753850846426
sg294
F0.00045752630776269633
sg295
F0.00045752630776269633
sg296
F0.0007625438462711606
sg297
F0.00015250876925423213
sg298
F0.00030501753850846426
sg299
F0.00015250876925423213
sg300
F0.0007625438462711606
sg301
F0.0019826140003050175
sg302
F0.0006100350770169285
sg303
F0.0006100350770169285
sg304
F0.0006100350770169285
sg305
F0.0006100350770169285
sg306
F0.00030501753850846426
sg307
F0.0013725789232880892
sg308
F0.00030501753850846426
sg309
F0.0013725789232880892
sg310
F0.00030501753850846426
sg311
F0.00015250876925423213
sg312
F0.00030501753850846426
sg313
F0.00015250876925423213
sg314
F0.00030501753850846426
sg315
F0.00015250876925423213
sg316
F0.00045752630776269633
sg317
F0.00030501753850846426
sg318
F0.00045752630776269633
sg319
F0.00045752630776269633
sg320
F0.001067561384779625
sg321
F0.002592649077321946
sg322
F0.0007625438462711606
sg323
F0.0007625438462711606
sg324
F0.00015250876925423213
sg325
F0.00030501753850846426
sg326
F0.00045752630776269633
sg327
F0.00015250876925423213
sg328
F0.00045752630776269633
sg329
F0.00030501753850846426
sg330
F0.00045752630776269633
sg331
F0.00030501753850846426
sg332
F0.00030501753850846426
sg333
F0.00030501753850846426
sg334
F0.00045752630776269633
sg335
F0.00045752630776269633
sg336
F0.00045752630776269633
sg337
F0.00015250876925423213
sg338
F0.001067561384779625
sg339
F0.0006100350770169285
sg340
F0.00045752630776269633
sg341
F0.00030501753850846426
sg342
F0.00045752630776269633
sg343
F0.00030501753850846426
sg344
F0.0006100350770169285
sg345
F0.00015250876925423213
sg346
F0.00015250876925423213
sg347
F0.0006100350770169285
sg348
F0.0019826140003050175
sg349
F0.00030501753850846426
sg350
F0.00045752630776269633
sg351
F0.002592649077321946
sg352
F0.002440140308067714
sg353
F0.0016775964617965532
sg354
F0.00030501753850846426
sg355
F0.00045752630776269633
sg356
F0.00030501753850846426
sg357
F0.0007625438462711606
sg358
F0.0016775964617965532
sg359
F0.0013725789232880892
sg360
F0.0006100350770169285
sg361
F0.00045752630776269633
sg362
F0.0009150526155253927
sg363
F0.00015250876925423213
sg364
F0.00045752630776269633
sg365
F0.00030501753850846426
sg366
F0.0006100350770169285
sg367
F0.0013725789232880892
sg368
F0.001220070154033857
sg369
F0.00030501753850846426
sg370
F0.00030501753850846426
sg371
F0.0013725789232880892
sg372
F0.00716791215494891
sg373
F0.00015250876925423213
sg374
F0.0007625438462711606
sg375
F0.00030501753850846426
sg376
F0.001220070154033857
sg377
F0.00015250876925423213
sg378
F0.0013725789232880892
sg379
F0.0009150526155253927
sg380
F0.00030501753850846426
sg381
F0.00015250876925423213
sg382
F0.00030501753850846426
sg383
F0.00045752630776269633
sg384
F0.00030501753850846426
sg385
F0.00045752630776269633
sg386
F0.00030501753850846426
sg387
F0.0009150526155253927
sg388
F0.00030501753850846426
sg389
F0.00015250876925423213
sg390
F0.0045752630776269634
sg391
F0.0007625438462711606
sg392
F0.00045752630776269633
sg393
F0.00015250876925423213
sg394
F0.002440140308067714
sg395
F0.00045752630776269633
sg396
F0.001067561384779625
sg397
F0.0006100350770169285
sg398
F0.00015250876925423213
sg399
F0.00045752630776269633
sg400
F0.00030501753850846426
sg401
F0.00015250876925423213
sg402
F0.00015250876925423213
sg403
F0.00045752630776269633
sg404
F0.001067561384779625
sg405
F0.0006100350770169285
sg406
F0.00045752630776269633
sg407
F0.0013725789232880892
sg408
F0.00045752630776269633
sg409
F0.00015250876925423213
sg410
F0.00015250876925423213
sg411
F0.001220070154033857
sg412
F0.00015250876925423213
sg413
F0.00030501753850846426
sg414
F0.002440140308067714
sg415
F0.001220070154033857
sg416
F0.00045752630776269633
sg417
F0.0035077016928473388
sg418
F0.00045752630776269633
sg419
F0.00015250876925423213
sg420
F0.00015250876925423213
sg421
F0.0006100350770169285
sg422
F0.00030501753850846426
sg423
F0.00030501753850846426
sg424
F0.00015250876925423213
sg425
F0.00045752630776269633
sg426
F0.0006100350770169285
sg427
F0.00015250876925423213
sg428
F0.00015250876925423213
sg429
F0.00015250876925423213
sg430
F0.001067561384779625
sg431
F0.0013725789232880892
sg432
F0.0013725789232880892
sg433
F0.00030501753850846426
sg434
F0.00015250876925423213
sg435
F0.00015250876925423213
sg436
F0.00045752630776269633
sg437
F0.00015250876925423213
sg438
F0.001067561384779625
sg439
F0.00030501753850846426
sg440
F0.00015250876925423213
sg441
F0.0006100350770169285
sg442
F0.00015250876925423213
sg443
F0.00030501753850846426
sg444
F0.005490315693152357
sg445
F0.0006100350770169285
sg446
F0.00045752630776269633
sg447
F0.00045752630776269633
sg448
F0.00045752630776269633
sg449
F0.00015250876925423213
sg450
F0.00030501753850846426
sg451
F0.00015250876925423213
sg452
F0.00015250876925423213
sg453
F0.0018301052310507853
sg454
F0.0007625438462711606
sg455
F0.0009150526155253927
sg456
F0.00015250876925423213
sg457
F0.00045752630776269633
sg458
F0.00030501753850846426
sg459
F0.00015250876925423213
sg460
F0.00030501753850846426
sg461
F0.00030501753850846426
sg462
F0.0006100350770169285
sg463
F0.00030501753850846426
sg464
F0.00045752630776269633
sg465
F0.00030501753850846426
sg466
F0.00015250876925423213
sg467
F0.0007625438462711606
sg468
F0.001220070154033857
sg469
F0.00213512276955925
sg470
F0.0007625438462711606
sg471
F0.0007625438462711606
sg472
F0.012658227848101266
sg473
F0.0013725789232880892
sg474
F0.00030501753850846426
sg475
F0.0006100350770169285
sg476
F0.00030501753850846426
sg477
F0.00030501753850846426
sg478
F0.0009150526155253927
sg479
F0.0013725789232880892
sg480
F0.00015250876925423213
sg481
F0.0013725789232880892
sg482
F0.00015250876925423213
sg483
F0.00015250876925423213
sg484
F0.00030501753850846426
sg485
F0.00045752630776269633
sg486
F0.001067561384779625
sg487
F0.00015250876925423213
sg488
F0.00030501753850846426
sg489
F0.001067561384779625
sg490
F0.00015250876925423213
sg491
F0.0013725789232880892
sg492
F0.0006100350770169285
sg493
F0.00015250876925423213
sg494
F0.00030501753850846426
sg495
F0.00015250876925423213
sg496
F0.001220070154033857
sg497
F0.0019826140003050175
sg498
F0.0009150526155253927
sg499
F0.0007625438462711606
sg500
F0.00045752630776269633
sg501
F0.0006100350770169285
sg502
F0.0006100350770169285
sg503
F0.00045752630776269633
sg504
F0.0009150526155253927
sg505
F0.0007625438462711606
sg506
F0.00015250876925423213
sg507
F0.001067561384779625
sg508
F0.00045752630776269633
sg509
F0.00045752630776269633
sg510
F0.001220070154033857
sg511
F0.0009150526155253927
sg512
F0.0007625438462711606
sg513
F0.00015250876925423213
sg514
F0.00045752630776269633
sg515
F0.00030501753850846426
sg516
F0.0016775964617965532
sg517
F0.0007625438462711606
sg518
F0.00030501753850846426
sg519
F0.001067561384779625
sg520
F0.00030501753850846426
sg521
F0.0007625438462711606
sg522
F0.0007625438462711606
sg523
F0.0013725789232880892
sg524
F0.0013725789232880892
sg525
F0.0013725789232880892
sg526
F0.0007625438462711606
sg527
F0.003965228000610035
sg528
F0.0030501753850846426
sg529
F0.003812719231355803
sg530
F0.0028976666158304102
sg531
F0.0027451578465761783
sg532
F0.00030501753850846426
sg533
F0.002592649077321946
sg534
F0.0007625438462711606
sg535
F0.00030501753850846426
sg536
F0.010828122617050481
sg537
F0.00015250876925423213
sg538
F0.00213512276955925
sg539
F0.00045752630776269633
sg540
F0.00045752630776269633
sg541
F0.00045752630776269633
sg542
F0.0006100350770169285
sg543
F0.001067561384779625
sg544
F0.0015250876925423213
sg545
F0.0006100350770169285
sg546
F0.00015250876925423213
sg547
F0.0009150526155253927
sg548
F0.001067561384779625
sg549
F0.00030501753850846426
sg550
F0.00030501753850846426
sg551
F0.00030501753850846426
sg552
F0.00030501753850846426
sg553
F0.00030501753850846426
sg554
F0.00015250876925423213
sg555
F0.00015250876925423213
sg556
F0.001067561384779625
sg557
F0.00015250876925423213
sg558
F0.0007625438462711606
sg559
F0.00015250876925423213
sg560
F0.00030501753850846426
sg561
F0.00045752630776269633
sg562
F0.00015250876925423213
sg563
F0.00030501753850846426
sg564
F0.00015250876925423213
sg565
F0.0022876315388134817
sg566
F0.00045752630776269633
sg567
F0.0016775964617965532
sg568
F0.0009150526155253927
sg569
F0.0013725789232880892
sg570
F0.00015250876925423213
sg571
F0.00015250876925423213
sg572
F0.002440140308067714
sg573
F0.00030501753850846426
sg574
F0.00045752630776269633
sg575
F0.00030501753850846426
sg576
F0.0022876315388134817
sg577
F0.00015250876925423213
sg578
F0.0006100350770169285
sg579
F0.00045752630776269633
sg580
F0.0009150526155253927
sg581
F0.00030501753850846426
sg582
F0.0007625438462711606
sg583
F0.00045752630776269633
sg584
F0.0006100350770169285
sg585
F0.00030501753850846426
sg586
F0.00030501753850846426
sg587
F0.00045752630776269633
sg588
F0.0006100350770169285
sg589
F0.003965228000610035
sg590
F0.00015250876925423213
sg591
F0.00045752630776269633
sg592
F0.0007625438462711606
sg593
F0.00015250876925423213
sg594
F0.0018301052310507853
sg595
F0.00030501753850846426
sg596
F0.0019826140003050175
sg597
F0.00015250876925423213
sg598
F0.0016775964617965532
sg599
F0.00030501753850846426
sg600
F0.00030501753850846426
sg601
F0.00015250876925423213
sg602
F0.00030501753850846426
sg603
F0.0018301052310507853
sg604
F0.00030501753850846426
sg605
F0.008235473539728535
sg606
F0.00030501753850846426
sg607
F0.0007625438462711606
sg608
F0.00015250876925423213
sg609
F0.00030501753850846426
sg610
F0.00030501753850846426
sg611
F0.00015250876925423213
sg612
F0.0006100350770169285
sg613
F0.00030501753850846426
sg614
F0.00015250876925423213
sg615
F0.00030501753850846426
sg616
F0.00045752630776269633
sg617
F0.00045752630776269633
sg618
F0.00030501753850846426
sg619
F0.00015250876925423213
sg620
F0.001067561384779625
sg621
F0.0022876315388134817
sg622
F0.00045752630776269633
sg623
F0.0006100350770169285
sg624
F0.00045752630776269633
sg625
F0.00015250876925423213
sg626
F0.0007625438462711606
sg627
F0.0006100350770169285
sg628
F0.0013725789232880892
sg629
F0.00030501753850846426
sg630
F0.0006100350770169285
sg631
F0.00045752630776269633
sg632
F0.00045752630776269633
sg633
F0.00030501753850846426
sg634
F0.001220070154033857
sg635
F0.00045752630776269633
sg636
F0.00030501753850846426
sg637
F0.0006100350770169285
sg638
F0.0006100350770169285
sg639
F0.00015250876925423213
sg640
F0.00015250876925423213
sg641
F0.0006100350770169285
sg642
F0.00030501753850846426
sg643
F0.00045752630776269633
sg644
F0.00015250876925423213
sg645
F0.00030501753850846426
sg646
F0.00045752630776269633
sg647
F0.00030501753850846426
sg648
F0.00015250876925423213
sg649
F0.01220070154033857
sg650
F0.00015250876925423213
sg651
F0.00045752630776269633
sg652
F0.00030501753850846426
sg653
F0.0006100350770169285
sg654
F0.00015250876925423213
sg655
F0.00015250876925423213
sg656
F0.0006100350770169285
sg657
F0.00015250876925423213
sg658
F0.00015250876925423213
sg659
F0.00030501753850846426
sg660
F0.00030501753850846426
sg661
F0.0007625438462711606
sg662
F0.0018301052310507853
sg663
F0.00030501753850846426
sg664
F0.0006100350770169285
sg665
F0.0006100350770169285
sg666
F0.00030501753850846426
sg667
F0.00045752630776269633
sg668
F0.0006100350770169285
sg669
F0.0009150526155253927
sg670
F0.00015250876925423213
sg671
F0.0007625438462711606
sg672
F0.0009150526155253927
sg673
F0.00030501753850846426
sg674
F0.00030501753850846426
sg675
F0.00015250876925423213
sg676
F0.002440140308067714
sg677
F0.0007625438462711606
sg678
F0.0007625438462711606
sg679
F0.00015250876925423213
sg680
F0.00015250876925423213
sg681
F0.002440140308067714
sg682
F0.00015250876925423213
sg683
F0.0007625438462711606
sg684
F0.00030501753850846426
sg685
F0.0007625438462711606
sg686
F0.00015250876925423213
sg687
F0.00015250876925423213
sg688
F0.00015250876925423213
sg689
F0.00015250876925423213
sg690
F0.00015250876925423213
sg691
F0.001067561384779625
sg692
F0.0018301052310507853
sg693
F0.00015250876925423213
sg694
F0.00030501753850846426
sg695
F0.0030501753850846426
sg696
F0.00213512276955925
sg697
F0.00015250876925423213
sg698
F0.00030501753850846426
sg699
F0.00045752630776269633
sg700
F0.00045752630776269633
sg701
F0.00045752630776269633
sg702
F0.0007625438462711606
sg703
F0.00030501753850846426
sg704
F0.00015250876925423213
sg705
F0.00030501753850846426
sg706
F0.00045752630776269633
sg707
F0.0006100350770169285
sg708
F0.0006100350770169285
sg709
F0.00015250876925423213
sg710
F0.00015250876925423213
sg711
F0.00015250876925423213
sg712
F0.0006100350770169285
sg713
F0.00045752630776269633
sg714
F0.0007625438462711606
sg715
F0.00015250876925423213
sg716
F0.0006100350770169285
sg717
F0.00045752630776269633
sg718
F0.006252859539423517
sg719
F0.00045752630776269633
sg720
F0.00015250876925423213
sg721
F0.00030501753850846426
sg722
F0.00015250876925423213
sg723
F0.003812719231355803
sg724
F0.00030501753850846426
sg725
F0.00015250876925423213
sg726
F0.00015250876925423213
sg727
F0.00030501753850846426
sg728
F0.00045752630776269633
sg729
F0.0007625438462711606
sg730
F0.00015250876925423213
sg731
F0.00030501753850846426
sg732
F0.00015250876925423213
sg733
F0.0018301052310507853
sg734
F0.0019826140003050175
sg735
F0.00045752630776269633
sg736
F0.00015250876925423213
sg737
F0.0015250876925423213
sg738
F0.001067561384779625
sg739
F0.0006100350770169285
sg740
F0.0015250876925423213
sg741
F0.00045752630776269633
sg742
F0.00045752630776269633
sg743
F0.004880280616135428
sg744
F0.00030501753850846426
sg745
F0.00030501753850846426
sg746
F0.00015250876925423213
sg747
F0.00045752630776269633
sg748
F0.0009150526155253927
sg749
F0.00030501753850846426
sg750
F0.00045752630776269633
sg751
F0.0006100350770169285
sg752
F0.00030501753850846426
sg753
F0.00015250876925423213
sg754
F0.00030501753850846426
sg755
F0.00030501753850846426
sg756
F0.00015250876925423213
sg757
F0.002440140308067714
sg758
F0.0006100350770169285
sg759
F0.00045752630776269633
sg760
F0.0007625438462711606
sg761
F0.00030501753850846426
sg762
F0.0007625438462711606
sg763
F0.00045752630776269633
sg764
F0.00030501753850846426
sg765
F0.0016775964617965532
sg766
F0.00015250876925423213
sg767
F0.039042244929083425
sg768
F0.00045752630776269633
sg769
F0.00015250876925423213
sg770
F0.0006100350770169285
sg771
F0.0006100350770169285
sg772
F0.00045752630776269633
sg773
F0.00045752630776269633
sg774
F0.00030501753850846426
sg775
F0.00213512276955925
sg776
F0.00030501753850846426
sg777
F0.00030501753850846426
sg778
F0.0015250876925423213
sg779
F0.00030501753850846426
sg780
F0.0016775964617965532
sg781
F0.00030501753850846426
sg782
F0.00015250876925423213
sg783
F0.00015250876925423213
sg784
F0.00213512276955925
sg785
F0.00045752630776269633
sg786
F0.0013725789232880892
sg787
F0.00015250876925423213
sg788
F0.0006100350770169285
sg789
F0.00045752630776269633
sg790
F0.00015250876925423213
sg791
F0.00030501753850846426
sg792
F0.00045752630776269633
sg793
F0.0006100350770169285
sg794
F0.0009150526155253927
sg795
F0.0006100350770169285
sg796
F0.00045752630776269633
sg797
F0.0018301052310507853
sg798
F0.002592649077321946
sg799
F0.0009150526155253927
sg800
F0.0009150526155253927
sg801
F0.0009150526155253927
sg802
F0.0006100350770169285
sg803
F0.001220070154033857
sg804
F0.00045752630776269633
sg805
F0.0015250876925423213
sg806
F0.00030501753850846426
sg807
F0.00015250876925423213
sg808
F0.001067561384779625
sg809
F0.00030501753850846426
sg810
F0.00045752630776269633
sg811
F0.00045752630776269633
sg812
F0.00030501753850846426
sg813
F0.00015250876925423213
sg814
F0.00015250876925423213
sg815
F0.001220070154033857
sg816
F0.00015250876925423213
sg817
F0.00045752630776269633
sg818
F0.0007625438462711606
sg819
F0.00015250876925423213
sg820
F0.00045752630776269633
sg821
F0.00030501753850846426
sg822
F0.00030501753850846426
sg823
F0.00015250876925423213
sg824
F0.00045752630776269633
sg825
F0.002592649077321946
sg826
F0.00015250876925423213
sg827
F0.00030501753850846426
sg828
F0.0007625438462711606
sg829
F0.00045752630776269633
sg830
F0.00015250876925423213
sg831
F0.0018301052310507853
sg832
F0.00015250876925423213
sg833
F0.00015250876925423213
sg834
F0.0006100350770169285
sg835
F0.0007625438462711606
sg836
F0.00015250876925423213
sg837
F0.00015250876925423213
sg838
F0.0006100350770169285
sg839
F0.00045752630776269633
sg840
F0.00045752630776269633
sg841
F0.0006100350770169285
sg842
F0.00015250876925423213
sg843
F0.00015250876925423213
sg844
F0.00030501753850846426
sg845
F0.00015250876925423213
sg846
F0.00030501753850846426
sg847
F0.0016775964617965532
sg848
F0.00045752630776269633
sg849
F0.00030501753850846426
sg850
F0.00015250876925423213
sg851
F0.00045752630776269633
sg852
F0.00030501753850846426
sg853
F0.0007625438462711606
sg854
F0.00045752630776269633
sg855
F0.00030501753850846426
sg856
F0.00045752630776269633
sg857
F0.0016775964617965532
sg858
F0.00030501753850846426
sg859
F0.0006100350770169285
sg860
F0.00015250876925423213
sg861
F0.0006100350770169285
sg862
F0.0007625438462711606
sg863
F0.00030501753850846426
sg864
F0.00015250876925423213
sg865
F0.00015250876925423213
sg866
F0.00015250876925423213
sg867
F0.001220070154033857
sg868
F0.00045752630776269633
sg869
F0.002592649077321946
sg870
F0.00030501753850846426
sg871
F0.0009150526155253927
sg872
F0.00030501753850846426
sg873
F0.00045752630776269633
sg874
F0.00015250876925423213
sg875
F0.0006100350770169285
sg876
F0.00015250876925423213
sg877
F0.00015250876925423213
sg878
F0.00045752630776269633
sg879
F0.0006100350770169285
sg880
F0.0015250876925423213
sg881
F0.00030501753850846426
sg882
F0.00030501753850846426
sg883
F0.00045752630776269633
sg884
F0.00045752630776269633
sg885
F0.0006100350770169285
sg886
F0.00015250876925423213
sg887
F0.0007625438462711606
sg888
F0.0007625438462711606
sg889
F0.0007625438462711606
sg890
F0.001220070154033857
sg891
F0.00015250876925423213
sg892
F0.006100350770169285
sg893
F0.004727771846881196
sg894
F0.00015250876925423213
sg895
F0.00045752630776269633
sg896
F0.00030501753850846426
sg897
F0.0009150526155253927
sg898
F0.00045752630776269633
sg899
F0.0006100350770169285
sg900
F0.0006100350770169285
sg901
F0.001067561384779625
sg902
F0.0015250876925423213
sg903
F0.00030501753850846426
sg904
F0.00015250876925423213
sg905
F0.00015250876925423213
sg906
F0.00015250876925423213
sg907
F0.0013725789232880892
sg908
F0.00030501753850846426
sg909
F0.00045752630776269633
sg910
F0.0022876315388134817
sg911
F0.0018301052310507853
sg912
F0.00030501753850846426
sg913
F0.0036602104621015707
sg914
F0.00015250876925423213
sg915
F0.00030501753850846426
sg916
F0.00045752630776269633
sg917
F0.00213512276955925
sg918
F0.00045752630776269633
sg919
F0.00015250876925423213
sg920
F0.002440140308067714
sg921
F0.00045752630776269633
sg922
F0.00015250876925423213
sg923
F0.00045752630776269633
sg924
F0.00030501753850846426
sg925
F0.00015250876925423213
sg926
F0.001220070154033857
sg927
F0.0009150526155253927
sg928
F0.00015250876925423213
sg929
F0.032179350312642976
sg930
F0.00015250876925423213
sg931
F0.00030501753850846426
sg932
F0.00015250876925423213
sg933
F0.001067561384779625
sg934
F0.00015250876925423213
sg935
F0.0016775964617965532
sg936
F0.0009150526155253927
sg937
F0.0007625438462711606
sg938
F0.00030501753850846426
sg939
F0.00015250876925423213
sg940
F0.00015250876925423213
sg941
F0.00045752630776269633
sg942
F0.00015250876925423213
sg943
F0.00030501753850846426
sg944
F0.00015250876925423213
sg945
F0.0009150526155253927
sg946
F0.00015250876925423213
sg947
F0.00015250876925423213
sg948
F0.00030501753850846426
sg949
F0.0006100350770169285
sg950
F0.0006100350770169285
sg951
F0.00015250876925423213
sg952
F0.00030501753850846426
sg953
F0.00045752630776269633
sg954
F0.0006100350770169285
sg955
F0.001067561384779625
sg956
F0.00045752630776269633
sg957
F0.00015250876925423213
sg958
F0.00030501753850846426
sg959
F0.00030501753850846426
sg960
F0.00030501753850846426
sg961
F0.001220070154033857
sg962
F0.00015250876925423213
sg963
F0.00503278938538966
sg964
F0.0007625438462711606
sg965
F0.0015250876925423213
sg966
F0.00045752630776269633
sg967
F0.0013725789232880892
sg968
F0.00030501753850846426
sg969
F0.00030501753850846426
sg970
F0.0016775964617965532
sg971
F0.0009150526155253927
sg972
F0.00015250876925423213
sg973
F0.00015250876925423213
sg974
F0.00030501753850846426
sg975
F0.00015250876925423213
sg976
F0.00045752630776269633
sg977
F0.0009150526155253927
sg978
F0.001220070154033857
sg979
F0.00015250876925423213
sg980
F0.00045752630776269633
sg981
F0.00030501753850846426
sg982
F0.00045752630776269633
sg983
F0.00015250876925423213
sg984
F0.00045752630776269633
sg985
F0.0016775964617965532
sg986
F0.0016775964617965532
sg987
F0.0006100350770169285
sg988
F0.00045752630776269633
sg989
F0.00045752630776269633
sg990
F0.0007625438462711606
sg991
F0.0006100350770169285
sg992
F0.00045752630776269633
sg993
F0.00045752630776269633
sg994
F0.00030501753850846426
sg995
F0.00045752630776269633
sg996
F0.0009150526155253927
sg997
F0.001067561384779625
sg998
F0.00030501753850846426
sg999
F0.001067561384779625
sg1000
F0.00030501753850846426
sg1001
F0.00045752630776269633
sg1002
F0.00030501753850846426
sg1003
F0.002592649077321946
sg1004
F0.0030501753850846426
sg1005
F0.00045752630776269633
sg1006
F0.0007625438462711606
sg1007
F0.00015250876925423213
sg1008
F0.00015250876925423213
sg1009
F0.0006100350770169285
sg1010
F0.0018301052310507853
sg1011
F0.00015250876925423213
sg1012
F0.00030501753850846426
sg1013
F0.0009150526155253927
sg1014
F0.00045752630776269633
sg1015
F0.00045752630776269633
sg1016
F0.00015250876925423213
sg1017
F0.00045752630776269633
sg1018
F0.0006100350770169285
sg1019
F0.00045752630776269633
sg1020
F0.0007625438462711606
sg1021
F0.0006100350770169285
sg1022
F0.0016775964617965532
sg1023
F0.00030501753850846426
sg1024
F0.00015250876925423213
sg1025
F0.00045752630776269633
sg1026
F0.00045752630776269633
sg1027
F0.0007625438462711606
sg1028
F0.00030501753850846426
sg1029
F0.00030501753850846426
sg1030
F0.00045752630776269633
sg1031
F0.0033551929235931064
sg1032
F0.00015250876925423213
sg1033
F0.00030501753850846426
sg1034
F0.00015250876925423213
sg1035
F0.00030501753850846426
sg1036
F0.0006100350770169285
sg1037
F0.00045752630776269633
sg1038
F0.00030501753850846426
sg1039
F0.00030501753850846426
sg1040
F0.004727771846881196
sg1041
F0.0006100350770169285
sg1042
F0.00015250876925423213
sg1043
F0.00030501753850846426
sg1044
F0.00045752630776269633
sg1045
F0.0007625438462711606
sg1046
F0.003965228000610035
sg1047
F0.00030501753850846426
sg1048
F0.00015250876925423213
sg1049
F0.0007625438462711606
sg1050
F0.001067561384779625
sg1051
F0.00213512276955925
sg1052
F0.004117736769864267
sg1053
F0.00030501753850846426
sg1054
F0.00015250876925423213
sg1055
F0.001220070154033857
sg1056
F0.0007625438462711606
sg1057
F0.0006100350770169285
sg1058
F0.00015250876925423213
sg1059
F0.0007625438462711606
sg1060
F0.00030501753850846426
sg1061
F0.00030501753850846426
sg1062
F0.0006100350770169285
sg1063
F0.0045752630776269634
sg1064
F0.00045752630776269633
sg1065
F0.0036602104621015707
sg1066
F0.00015250876925423213
sg1067
F0.00030501753850846426
sg1068
F0.00030501753850846426
sg1069
F0.0007625438462711606
sg1070
F0.00030501753850846426
sg1071
F0.00015250876925423213
sg1072
F0.00045752630776269633
sg1073
F0.0007625438462711606
sg1074
F0.00030501753850846426
sg1075
F0.00045752630776269633
sg1076
F0.00015250876925423213
sg1077
F0.00015250876925423213
sg1078
F0.00045752630776269633
sg1079
F0.00030501753850846426
sg1080
F0.00045752630776269633
sg1081
F0.00045752630776269633
sg1082
F0.00045752630776269633
sg1083
F0.0009150526155253927
sg1084
F0.00030501753850846426
sg1085
F0.0006100350770169285
sg1086
F0.00015250876925423213
sg1087
F0.0006100350770169285
sg1088
F0.0009150526155253927
sg1089
F0.001067561384779625
sg1090
F0.0006100350770169285
sg1091
F0.00030501753850846426
sg1092
F0.00015250876925423213
sg1093
F0.00045752630776269633
sg1094
F0.041482385237151136
sg1095
F0.0015250876925423213
sg1096
F0.00030501753850846426
sg1097
F0.00045752630776269633
sg1098
F0.0006100350770169285
sg1099
F0.0006100350770169285
sg1100
F0.0022876315388134817
sg1101
F0.0006100350770169285
sg1102
F0.00030501753850846426
sg1103
F0.00015250876925423213
sg1104
F0.00045752630776269633
sg1105
F0.00045752630776269633
sg1106
F0.004880280616135428
sg1107
F0.0006100350770169285
sg1108
F0.004727771846881196
sg1109
F0.0009150526155253927
sg1110
F0.00045752630776269633
sg1111
F0.0009150526155253927
sg1112
F0.00030501753850846426
sg1113
F0.00030501753850846426
sg1114
F0.00045752630776269633
sg1115
F0.00015250876925423213
sg1116
F0.00015250876925423213
sg1117
F0.00030501753850846426
sg1118
F0.0009150526155253927
sg1119
F0.00030501753850846426
sg1120
F0.0015250876925423213
sg1121
F0.00015250876925423213
sg1122
F0.00030501753850846426
sg1123
F0.00030501753850846426
sg1124
F0.00030501753850846426
sg1125
F0.001067561384779625
sg1126
F0.00015250876925423213
sg1127
F0.00045752630776269633
sg1128
F0.0007625438462711606
sg1129
F0.0006100350770169285
sg1130
F0.00015250876925423213
sg1131
F0.00045752630776269633
sg1132
F0.0006100350770169285
sg1133
F0.00015250876925423213
sg1134
F0.00030501753850846426
sg1135
F0.00045752630776269633
sg1136
F0.0009150526155253927
sg1137
F0.0016775964617965532
sg1138
F0.0009150526155253927
sg1139
F0.016318438310202837
sg1140
F0.016775964617965534
sg1141
F0.0016775964617965532
sg1142
F0.0009150526155253927
sg1143
F0.0006100350770169285
sg1144
F0.0013725789232880892
sg1145
F0.00030501753850846426
sg1146
F0.00045752630776269633
sg1147
F0.0009150526155253927
sg1148
F0.00045752630776269633
sg1149
F0.00015250876925423213
sg1150
F0.00030501753850846426
sg1151
F0.0006100350770169285
sg1152
F0.00030501753850846426
sg1153
F0.00045752630776269633
sg1154
F0.00015250876925423213
sg1155
F0.00030501753850846426
sg1156
F0.0027451578465761783
sg1157
F0.00015250876925423213
sg1158
F0.00030501753850846426
sg1159
F0.00045752630776269633
sg1160
F0.00015250876925423213
sg1161
F0.045142595699252705
sg1162
F0.0033551929235931064
sg1163
F0.00045752630776269633
sg1164
F0.0006100350770169285
sg1165
F0.00015250876925423213
sg1166
F0.00030501753850846426
sg1167
F0.00015250876925423213
sg1168
F0.0013725789232880892
sg1169
F0.00045752630776269633
sg1170
F0.00045752630776269633
sg1171
F0.00015250876925423213
sg1172
F0.001067561384779625
sg1173
F0.011590666463321641
sg1174
F0.00045752630776269633
sg1175
F0.001067561384779625
sg1176
F0.0007625438462711606
sg1177
F0.0007625438462711606
sg1178
F0.00015250876925423213
sg1179
F0.001220070154033857
sg1180
F0.00045752630776269633
sg1181
F0.00015250876925423213
sg1182
F0.00015250876925423213
sg1183
F0.00015250876925423213
sg1184
F0.00015250876925423213
sg1185
F0.00030501753850846426
sg1186
F0.0006100350770169285
sg1187
F0.0030501753850846426
sg1188
F0.00045752630776269633
sg1189
F0.00030501753850846426
sg1190
F0.00045752630776269633
sg1191
F0.00015250876925423213
sg1192
F0.00030501753850846426
sg1193
F0.00015250876925423213
sg1194
F0.00030501753850846426
sg1195
F0.00045752630776269633
sg1196
F0.00045752630776269633
sg1197
F0.001067561384779625
sg1198
F0.00030501753850846426
sg1199
F0.002440140308067714
sg1200
F0.00045752630776269633
sg1201
F0.00030501753850846426
sg1202
F0.0019826140003050175
sg1203
F0.00015250876925423213
sg1204
F0.00030501753850846426
sg1205
F0.002592649077321946
sg1206
F0.0033551929235931064
sg1207
F0.00015250876925423213
sg1208
F0.00030501753850846426
sg1209
F0.0019826140003050175
sg1210
F0.001067561384779625
sg1211
F0.00045752630776269633
sg1212
F0.007320420924203141
sg1213
F0.00030501753850846426
sg1214
F0.00045752630776269633
sg1215
F0.00030501753850846426
sg1216
F0.00015250876925423213
sg1217
F0.008235473539728535
sg1218
F0.0007625438462711606
sg1219
F0.0027451578465761783
sg1220
F0.0006100350770169285
sg1221
F0.0019826140003050175
sg1222
F0.0006100350770169285
sg1223
F0.00030501753850846426
sg1224
F0.00030501753850846426
sg1225
F0.00045752630776269633
sg1226
F0.0016775964617965532
sg1227
F0.00015250876925423213
sg1228
F0.00015250876925423213
sg1229
F0.00030501753850846426
sg1230
F0.00015250876925423213
sg1231
F0.0013725789232880892
sg1232
F0.00015250876925423213
sg1233
F0.007320420924203141
sg1234
F0.0009150526155253927
sg1235
F0.00030501753850846426
sg1236
F0.001220070154033857
sg1237
F0.001067561384779625
sg1238
F0.00015250876925423213
sg1239
F0.0016775964617965532
sg1240
F0.0009150526155253927
sg1241
F0.00015250876925423213
sg1242
F0.0015250876925423213
sg1243
F0.00213512276955925
sg1244
F0.00015250876925423213
sg1245
F0.001220070154033857
sg1246
F0.0013725789232880892
sg1247
F0.00030501753850846426
sg1248
F0.0013725789232880892
sg1249
F0.00015250876925423213
sg1250
F0.00045752630776269633
sg1251
F0.00045752630776269633
sg1252
F0.00015250876925423213
sg1253
F0.0016775964617965532
sg1254
F0.00015250876925423213
sg1255
F0.00015250876925423213
sg1256
F0.00015250876925423213
sg1257
F0.0006100350770169285
sg1258
F0.00045752630776269633
sg1259
F0.00015250876925423213
sg1260
F0.0019826140003050175
sg1261
F0.00030501753850846426
sg1262
F0.0006100350770169285
sg1263
F0.00030501753850846426
sg1264
F0.00045752630776269633
sg1265
F0.0006100350770169285
sg1266
F0.00045752630776269633
sg1267
F0.00015250876925423213
sg1268
F0.00030501753850846426
sg1269
F0.00015250876925423213
sg1270
F0.0009150526155253927
sg1271
F0.00045752630776269633
sg1272
F0.00030501753850846426
sg1273
F0.00015250876925423213
sg1274
F0.00015250876925423213
sg1275
F0.00015250876925423213
sg1276
F0.00015250876925423213
sg1277
F0.00030501753850846426
sg1278
F0.00015250876925423213
sg1279
F0.0007625438462711606
sg1280
F0.00030501753850846426
sg1281
F0.00015250876925423213
sg1282
F0.00030501753850846426
sg1283
F0.003965228000610035
sg1284
F0.001067561384779625
sg1285
F0.0006100350770169285
sg1286
F0.0006100350770169285
sg1287
F0.0018301052310507853
sg1288
F0.0016775964617965532
sg1289
F0.00045752630776269633
sg1290
F0.001067561384779625
sg1291
F0.00015250876925423213
sg1292
F0.00030501753850846426
sg1293
F0.00015250876925423213
sg1294
F0.00015250876925423213
sg1295
F0.0006100350770169285
sg1296
F0.00045752630776269633
sg1297
F0.0036602104621015707
sg1298
F0.00030501753850846426
sg1299
F0.0006100350770169285
sg1300
F0.00030501753850846426
sg1301
F0.0006100350770169285
sg1302
F0.00030501753850846426
sg1303
F0.00030501753850846426
sg1304
F0.001067561384779625
sg1305
F0.001067561384779625
sg1306
F0.00015250876925423213
sg1307
F0.00015250876925423213
sg1308
F0.00030501753850846426
sg1309
F0.0007625438462711606
sg1310
F0.00030501753850846426
sg1311
F0.00045752630776269633
sg1312
F0.00015250876925423213
sg1313
F0.0019826140003050175
sg1314
F0.00030501753850846426
sg1315
F0.0033551929235931064
sg1316
F0.00030501753850846426
sg1317
F0.00030501753850846426
sg1318
F0.0006100350770169285
sg1319
F0.00045752630776269633
sg1320
F0.0013725789232880892
sg1321
F0.00015250876925423213
sg1322
F0.0019826140003050175
sg1323
F0.00045752630776269633
sg1324
F0.00045752630776269633
sg1325
F0.001220070154033857
sg1326
F0.0007625438462711606
sg1327
F0.00030501753850846426
sg1328
F0.0009150526155253927
sg1329
F0.00015250876925423213
sg1330
F0.00030501753850846426
sg1331
F0.00030501753850846426
sg1332
F0.00015250876925423213
sg1333
F0.00045752630776269633
sg1334
F0.00015250876925423213
sg1335
F0.0009150526155253927
sg1336
F0.00030501753850846426
sg1337
F0.00045752630776269633
sg1338
F0.00015250876925423213
sg1339
F0.00045752630776269633
sg1340
F0.00045752630776269633
sg1341
F0.0006100350770169285
sg1342
F0.00030501753850846426
sg1343
F0.00030501753850846426
sg1344
F0.00030501753850846426
sg1345
F0.00015250876925423213
sg1346
F0.00045752630776269633
sg1347
F0.00030501753850846426
sg1348
F0.0013725789232880892
sg1349
F0.00030501753850846426
sg1350
F0.00030501753850846426
sg1351
F0.00015250876925423213
sg1352
F0.0006100350770169285
sg1353
F0.00045752630776269633
sg1354
F0.00030501753850846426
sg1355
F0.00015250876925423213
sg1356
F0.00015250876925423213
sg1357
F0.001067561384779625
sg1358
F0.00015250876925423213
sg1359
F0.00030501753850846426
sg1360
F0.00030501753850846426
sg1361
F0.00045752630776269633
sg1362
F0.00045752630776269633
sg1363
F0.00030501753850846426
sg1364
F0.00045752630776269633
sg1365
F0.0035077016928473388
sg1366
F0.00030501753850846426
sg1367
F0.00045752630776269633
sg1368
F0.00045752630776269633
sg1369
F0.00015250876925423213
sg1370
F0.00045752630776269633
sg1371
F0.00045752630776269633
sg1372
F0.00030501753850846426
sg1373
F0.00015250876925423213
sg1374
F0.0006100350770169285
sg1375
F0.00015250876925423213
sg1376
F0.00015250876925423213
sg1377
F0.00015250876925423213
sg1378
F0.00030501753850846426
sg1379
F0.0007625438462711606
sg1380
F0.0028976666158304102
sg1381
F0.0027451578465761783
sg1382
F0.00030501753850846426
sg1383
F0.00015250876925423213
sg1384
F0.00030501753850846426
sg1385
F0.00015250876925423213
sg1386
F0.001220070154033857
sg1387
F0.0009150526155253927
sg1388
F0.00015250876925423213
sg1389
F0.00015250876925423213
sg1390
F0.00015250876925423213
sg1391
F0.00030501753850846426
sg1392
F0.00045752630776269633
sg1393
F0.00030501753850846426
sg1394
F0.00030501753850846426
sg1395
F0.001067561384779625
sg1396
F0.00213512276955925
sg1397
F0.00030501753850846426
sg1398
F0.00015250876925423213
sg1399
F0.00045752630776269633
sg1400
F0.00015250876925423213
sg1401
F0.00045752630776269633
sg1402
F0.00030501753850846426
sg1403
F0.00015250876925423213
sg1404
F0.0009150526155253927
sg1405
F0.00015250876925423213
sg1406
F0.0016775964617965532
sg1407
F0.0022876315388134817
sg1408
F0.00015250876925423213
sg1409
F0.00045752630776269633
sg1410
F0.0036602104621015707
sg1411
F0.00030501753850846426
sg1412
F0.00030501753850846426
sg1413
F0.0006100350770169285
sg1414
F0.0009150526155253927
sg1415
F0.00015250876925423213
sg1416
F0.00030501753850846426
sg1417
F0.00045752630776269633
sg1418
F0.0009150526155253927
sg1419
F0.001067561384779625
sg1420
F0.0007625438462711606
sg1421
F0.00030501753850846426
sg1422
F0.00030501753850846426
sg1423
F0.00045752630776269633
sg1424
F0.00015250876925423213
sg1425
F0.00030501753850846426
sg1426
F0.0013725789232880892
sg1427
F0.00030501753850846426
sg1428
F0.00030501753850846426
sg1429
F0.00015250876925423213
sg1430
F0.001220070154033857
sg1431
F0.006405368308677749
sg1432
F0.0009150526155253927
sg1433
F0.00015250876925423213
sg1434
F0.00015250876925423213
sg1435
F0.00030501753850846426
sg1436
F0.00213512276955925
sg1437
F0.0007625438462711606
sg1438
F0.0013725789232880892
sg1439
F0.00015250876925423213
sg1440
F0.00030501753850846426
sg1441
F0.001220070154033857
sg1442
F0.0009150526155253927
sg1443
F0.0006100350770169285
sg1444
F0.00030501753850846426
sg1445
F0.00045752630776269633
sg1446
F0.00030501753850846426
sg1447
F0.00045752630776269633
sg1448
F0.0006100350770169285
sg1449
F0.00015250876925423213
sg1450
F0.0009150526155253927
sg1451
F0.00213512276955925
sg1452
F0.00030501753850846426
sg1453
F0.0006100350770169285
sg1454
F0.00045752630776269633
sg1455
F0.00015250876925423213
sg1456
F0.0006100350770169285
sg1457
F0.00045752630776269633
sg1458
F0.00015250876925423213
sg1459
F0.00030501753850846426
sg1460
F0.0006100350770169285
sg1461
F0.00030501753850846426
sg1462
F0.0015250876925423213
sg1463
F0.00015250876925423213
sg1464
F0.00015250876925423213
sg1465
F0.00030501753850846426
sg1466
F0.00030501753850846426
sg1467
F0.00030501753850846426
sg1468
F0.00045752630776269633
sg1469
F0.0006100350770169285
sg1470
F0.0007625438462711606
sg1471
F0.005642824462406588
sg1472
F0.00015250876925423213
sg1473
F0.001067561384779625
sg1474
F0.00030501753850846426
sg1475
F0.004727771846881196
sg1476
F0.00015250876925423213
sg1477
F0.00213512276955925
sg1478
F0.00045752630776269633
sg1479
F0.0006100350770169285
sg1480
F0.0009150526155253927
sg1481
F0.00030501753850846426
sg1482
F0.0007625438462711606
sg1483
F0.0019826140003050175
sg1484
F0.001067561384779625
sg1485
F0.0006100350770169285
sg1486
F0.0006100350770169285
sg1487
F0.00015250876925423213
sg1488
F0.00030501753850846426
sg1489
F0.00015250876925423213
sg1490
F0.00045752630776269633
sg1491
F0.00015250876925423213
sg1492
F0.001067561384779625
sg1493
F0.0006100350770169285
sg1494
F0.00015250876925423213
sg1495
F0.00015250876925423213
sg1496
F0.00015250876925423213
sg1497
F0.001067561384779625
sg1498
F0.00015250876925423213
sg1499
F0.00030501753850846426
sg1500
F0.00015250876925423213
sa.